
kernel8.elf:     file format elf64-littleaarch64


Disassembly of section .text:

0000000000080000 <_start>:
   80000:	d53800a1 	mrs	x1, mpidr_el1
   80004:	92400421 	and	x1, x1, #0x3
   80008:	b5000261 	cbnz	x1, 80054 <hang>

000000000008000c <get_current_EL>:
   8000c:	d5384241 	mrs	x1, currentel
   80010:	927e0421 	and	x1, x1, #0xc
   80014:	d342fc21 	lsr	x1, x1, #2
   80018:	f100083f 	cmp	x1, #0x2
   8001c:	540001c1 	b.ne	80054 <hang>  // b.any
   80020:	9400000f 	bl	8005c <from_EL2_to_EL1>

0000000000080024 <set_exception_vector_table>:
   80024:	10003ee1 	adr	x1, 80800 <exception_vector_table>
   80028:	d518c001 	msr	vbar_el1, x1

000000000008002c <set_sp>:
   8002c:	58007ea1 	ldr	x1, 81000 <exception_vector_table+0x800>
   80030:	9100003f 	mov	sp, x1

0000000000080034 <clear_bss>:
   80034:	58007ea1 	ldr	x1, 81008 <exception_vector_table+0x808>
   80038:	58007ec2 	ldr	x2, 81010 <exception_vector_table+0x810>

000000000008003c <clear_bss_loop>:
   8003c:	b4000082 	cbz	x2, 8004c <run_main>
   80040:	f800843f 	str	xzr, [x1], #8
   80044:	d1000442 	sub	x2, x2, #0x1
   80048:	b5ffffa2 	cbnz	x2, 8003c <clear_bss_loop>

000000000008004c <run_main>:
   8004c:	94000c77 	bl	83228 <main>
   80050:	14000001 	b	80054 <hang>

0000000000080054 <hang>:
   80054:	d503205f 	wfe
   80058:	17ffffff 	b	80054 <hang>

000000000008005c <from_EL2_to_EL1>:
   8005c:	d2b00001 	mov	x1, #0x80000000            	// #2147483648
   80060:	d51c1101 	msr	hcr_el2, x1
   80064:	d28068a2 	mov	x2, #0x345                 	// #837
   80068:	d51c4002 	msr	spsr_el2, x2
   8006c:	d51c403e 	msr	elr_el2, x30
   80070:	d69f03e0 	eret

0000000000080074 <from_EL1_to_EL0>:
   80074:	d5184020 	msr	elr_el1, x0
   80078:	d5184101 	msr	sp_el0, x1
   8007c:	d2806801 	mov	x1, #0x340                 	// #832
   80080:	d5184001 	msr	spsr_el1, x1
   80084:	d69f03e0 	eret

0000000000080088 <syn>:
   80088:	d10403ff 	sub	sp, sp, #0x100
   8008c:	a90007e0 	stp	x0, x1, [sp]
   80090:	a9010fe2 	stp	x2, x3, [sp, #16]
   80094:	a90217e4 	stp	x4, x5, [sp, #32]
   80098:	a9031fe6 	stp	x6, x7, [sp, #48]
   8009c:	a90427e8 	stp	x8, x9, [sp, #64]
   800a0:	a9052fea 	stp	x10, x11, [sp, #80]
   800a4:	a90637ec 	stp	x12, x13, [sp, #96]
   800a8:	a9073fee 	stp	x14, x15, [sp, #112]
   800ac:	a90847f0 	stp	x16, x17, [sp, #128]
   800b0:	a9094ff2 	stp	x18, x19, [sp, #144]
   800b4:	a90a57f4 	stp	x20, x21, [sp, #160]
   800b8:	a90b5ff6 	stp	x22, x23, [sp, #176]
   800bc:	a90c67f8 	stp	x24, x25, [sp, #192]
   800c0:	a90d6ffa 	stp	x26, x27, [sp, #208]
   800c4:	a90e77fc 	stp	x28, x29, [sp, #224]
   800c8:	f9007bfe 	str	x30, [sp, #240]
   800cc:	940008bd 	bl	823c0 <syn_handler>
   800d0:	a94007e0 	ldp	x0, x1, [sp]
   800d4:	a9410fe2 	ldp	x2, x3, [sp, #16]
   800d8:	a94217e4 	ldp	x4, x5, [sp, #32]
   800dc:	a9431fe6 	ldp	x6, x7, [sp, #48]
   800e0:	a94427e8 	ldp	x8, x9, [sp, #64]
   800e4:	a9452fea 	ldp	x10, x11, [sp, #80]
   800e8:	a94637ec 	ldp	x12, x13, [sp, #96]
   800ec:	a9473fee 	ldp	x14, x15, [sp, #112]
   800f0:	a94847f0 	ldp	x16, x17, [sp, #128]
   800f4:	a9494ff2 	ldp	x18, x19, [sp, #144]
   800f8:	a94a57f4 	ldp	x20, x21, [sp, #160]
   800fc:	a94b5ff6 	ldp	x22, x23, [sp, #176]
   80100:	a94c67f8 	ldp	x24, x25, [sp, #192]
   80104:	a94d6ffa 	ldp	x26, x27, [sp, #208]
   80108:	a94e77fc 	ldp	x28, x29, [sp, #224]
   8010c:	f9407bfe 	ldr	x30, [sp, #240]
   80110:	910403ff 	add	sp, sp, #0x100
   80114:	d69f03e0 	eret

0000000000080118 <irq>:
   80118:	d10403ff 	sub	sp, sp, #0x100
   8011c:	a90007e0 	stp	x0, x1, [sp]
   80120:	a9010fe2 	stp	x2, x3, [sp, #16]
   80124:	a90217e4 	stp	x4, x5, [sp, #32]
   80128:	a9031fe6 	stp	x6, x7, [sp, #48]
   8012c:	a90427e8 	stp	x8, x9, [sp, #64]
   80130:	a9052fea 	stp	x10, x11, [sp, #80]
   80134:	a90637ec 	stp	x12, x13, [sp, #96]
   80138:	a9073fee 	stp	x14, x15, [sp, #112]
   8013c:	a90847f0 	stp	x16, x17, [sp, #128]
   80140:	a9094ff2 	stp	x18, x19, [sp, #144]
   80144:	a90a57f4 	stp	x20, x21, [sp, #160]
   80148:	a90b5ff6 	stp	x22, x23, [sp, #176]
   8014c:	a90c67f8 	stp	x24, x25, [sp, #192]
   80150:	a90d6ffa 	stp	x26, x27, [sp, #208]
   80154:	a90e77fc 	stp	x28, x29, [sp, #224]
   80158:	f9007bfe 	str	x30, [sp, #240]
   8015c:	940008d1 	bl	824a0 <irq_handler>
   80160:	a94007e0 	ldp	x0, x1, [sp]
   80164:	a9410fe2 	ldp	x2, x3, [sp, #16]
   80168:	a94217e4 	ldp	x4, x5, [sp, #32]
   8016c:	a9431fe6 	ldp	x6, x7, [sp, #48]
   80170:	a94427e8 	ldp	x8, x9, [sp, #64]
   80174:	a9452fea 	ldp	x10, x11, [sp, #80]
   80178:	a94637ec 	ldp	x12, x13, [sp, #96]
   8017c:	a9473fee 	ldp	x14, x15, [sp, #112]
   80180:	a94847f0 	ldp	x16, x17, [sp, #128]
   80184:	a9494ff2 	ldp	x18, x19, [sp, #144]
   80188:	a94a57f4 	ldp	x20, x21, [sp, #160]
   8018c:	a94b5ff6 	ldp	x22, x23, [sp, #176]
   80190:	a94c67f8 	ldp	x24, x25, [sp, #192]
   80194:	a94d6ffa 	ldp	x26, x27, [sp, #208]
   80198:	a94e77fc 	ldp	x28, x29, [sp, #224]
   8019c:	f9407bfe 	ldr	x30, [sp, #240]
   801a0:	910403ff 	add	sp, sp, #0x100
   801a4:	d69f03e0 	eret

00000000000801a8 <not_supported>:
   801a8:	d10403ff 	sub	sp, sp, #0x100
   801ac:	a90007e0 	stp	x0, x1, [sp]
   801b0:	a9010fe2 	stp	x2, x3, [sp, #16]
   801b4:	a90217e4 	stp	x4, x5, [sp, #32]
   801b8:	a9031fe6 	stp	x6, x7, [sp, #48]
   801bc:	a90427e8 	stp	x8, x9, [sp, #64]
   801c0:	a9052fea 	stp	x10, x11, [sp, #80]
   801c4:	a90637ec 	stp	x12, x13, [sp, #96]
   801c8:	a9073fee 	stp	x14, x15, [sp, #112]
   801cc:	a90847f0 	stp	x16, x17, [sp, #128]
   801d0:	a9094ff2 	stp	x18, x19, [sp, #144]
   801d4:	a90a57f4 	stp	x20, x21, [sp, #160]
   801d8:	a90b5ff6 	stp	x22, x23, [sp, #176]
   801dc:	a90c67f8 	stp	x24, x25, [sp, #192]
   801e0:	a90d6ffa 	stp	x26, x27, [sp, #208]
   801e4:	a90e77fc 	stp	x28, x29, [sp, #224]
   801e8:	f9007bfe 	str	x30, [sp, #240]
   801ec:	940008b9 	bl	824d0 <undefined_handler>
   801f0:	a94007e0 	ldp	x0, x1, [sp]
   801f4:	a9410fe2 	ldp	x2, x3, [sp, #16]
   801f8:	a94217e4 	ldp	x4, x5, [sp, #32]
   801fc:	a9431fe6 	ldp	x6, x7, [sp, #48]
   80200:	a94427e8 	ldp	x8, x9, [sp, #64]
   80204:	a9452fea 	ldp	x10, x11, [sp, #80]
   80208:	a94637ec 	ldp	x12, x13, [sp, #96]
   8020c:	a9473fee 	ldp	x14, x15, [sp, #112]
   80210:	a94847f0 	ldp	x16, x17, [sp, #128]
   80214:	a9494ff2 	ldp	x18, x19, [sp, #144]
   80218:	a94a57f4 	ldp	x20, x21, [sp, #160]
   8021c:	a94b5ff6 	ldp	x22, x23, [sp, #176]
   80220:	a94c67f8 	ldp	x24, x25, [sp, #192]
   80224:	a94d6ffa 	ldp	x26, x27, [sp, #208]
   80228:	a94e77fc 	ldp	x28, x29, [sp, #224]
   8022c:	f9407bfe 	ldr	x30, [sp, #240]
   80230:	910403ff 	add	sp, sp, #0x100
   80234:	d69f03e0 	eret
   80238:	d503201f 	nop
   8023c:	d503201f 	nop
   80240:	d503201f 	nop
   80244:	d503201f 	nop
   80248:	d503201f 	nop
   8024c:	d503201f 	nop
   80250:	d503201f 	nop
   80254:	d503201f 	nop
   80258:	d503201f 	nop
   8025c:	d503201f 	nop
   80260:	d503201f 	nop
   80264:	d503201f 	nop
   80268:	d503201f 	nop
   8026c:	d503201f 	nop
   80270:	d503201f 	nop
   80274:	d503201f 	nop
   80278:	d503201f 	nop
   8027c:	d503201f 	nop
   80280:	d503201f 	nop
   80284:	d503201f 	nop
   80288:	d503201f 	nop
   8028c:	d503201f 	nop
   80290:	d503201f 	nop
   80294:	d503201f 	nop
   80298:	d503201f 	nop
   8029c:	d503201f 	nop
   802a0:	d503201f 	nop
   802a4:	d503201f 	nop
   802a8:	d503201f 	nop
   802ac:	d503201f 	nop
   802b0:	d503201f 	nop
   802b4:	d503201f 	nop
   802b8:	d503201f 	nop
   802bc:	d503201f 	nop
   802c0:	d503201f 	nop
   802c4:	d503201f 	nop
   802c8:	d503201f 	nop
   802cc:	d503201f 	nop
   802d0:	d503201f 	nop
   802d4:	d503201f 	nop
   802d8:	d503201f 	nop
   802dc:	d503201f 	nop
   802e0:	d503201f 	nop
   802e4:	d503201f 	nop
   802e8:	d503201f 	nop
   802ec:	d503201f 	nop
   802f0:	d503201f 	nop
   802f4:	d503201f 	nop
   802f8:	d503201f 	nop
   802fc:	d503201f 	nop
   80300:	d503201f 	nop
   80304:	d503201f 	nop
   80308:	d503201f 	nop
   8030c:	d503201f 	nop
   80310:	d503201f 	nop
   80314:	d503201f 	nop
   80318:	d503201f 	nop
   8031c:	d503201f 	nop
   80320:	d503201f 	nop
   80324:	d503201f 	nop
   80328:	d503201f 	nop
   8032c:	d503201f 	nop
   80330:	d503201f 	nop
   80334:	d503201f 	nop
   80338:	d503201f 	nop
   8033c:	d503201f 	nop
   80340:	d503201f 	nop
   80344:	d503201f 	nop
   80348:	d503201f 	nop
   8034c:	d503201f 	nop
   80350:	d503201f 	nop
   80354:	d503201f 	nop
   80358:	d503201f 	nop
   8035c:	d503201f 	nop
   80360:	d503201f 	nop
   80364:	d503201f 	nop
   80368:	d503201f 	nop
   8036c:	d503201f 	nop
   80370:	d503201f 	nop
   80374:	d503201f 	nop
   80378:	d503201f 	nop
   8037c:	d503201f 	nop
   80380:	d503201f 	nop
   80384:	d503201f 	nop
   80388:	d503201f 	nop
   8038c:	d503201f 	nop
   80390:	d503201f 	nop
   80394:	d503201f 	nop
   80398:	d503201f 	nop
   8039c:	d503201f 	nop
   803a0:	d503201f 	nop
   803a4:	d503201f 	nop
   803a8:	d503201f 	nop
   803ac:	d503201f 	nop
   803b0:	d503201f 	nop
   803b4:	d503201f 	nop
   803b8:	d503201f 	nop
   803bc:	d503201f 	nop
   803c0:	d503201f 	nop
   803c4:	d503201f 	nop
   803c8:	d503201f 	nop
   803cc:	d503201f 	nop
   803d0:	d503201f 	nop
   803d4:	d503201f 	nop
   803d8:	d503201f 	nop
   803dc:	d503201f 	nop
   803e0:	d503201f 	nop
   803e4:	d503201f 	nop
   803e8:	d503201f 	nop
   803ec:	d503201f 	nop
   803f0:	d503201f 	nop
   803f4:	d503201f 	nop
   803f8:	d503201f 	nop
   803fc:	d503201f 	nop
   80400:	d503201f 	nop
   80404:	d503201f 	nop
   80408:	d503201f 	nop
   8040c:	d503201f 	nop
   80410:	d503201f 	nop
   80414:	d503201f 	nop
   80418:	d503201f 	nop
   8041c:	d503201f 	nop
   80420:	d503201f 	nop
   80424:	d503201f 	nop
   80428:	d503201f 	nop
   8042c:	d503201f 	nop
   80430:	d503201f 	nop
   80434:	d503201f 	nop
   80438:	d503201f 	nop
   8043c:	d503201f 	nop
   80440:	d503201f 	nop
   80444:	d503201f 	nop
   80448:	d503201f 	nop
   8044c:	d503201f 	nop
   80450:	d503201f 	nop
   80454:	d503201f 	nop
   80458:	d503201f 	nop
   8045c:	d503201f 	nop
   80460:	d503201f 	nop
   80464:	d503201f 	nop
   80468:	d503201f 	nop
   8046c:	d503201f 	nop
   80470:	d503201f 	nop
   80474:	d503201f 	nop
   80478:	d503201f 	nop
   8047c:	d503201f 	nop
   80480:	d503201f 	nop
   80484:	d503201f 	nop
   80488:	d503201f 	nop
   8048c:	d503201f 	nop
   80490:	d503201f 	nop
   80494:	d503201f 	nop
   80498:	d503201f 	nop
   8049c:	d503201f 	nop
   804a0:	d503201f 	nop
   804a4:	d503201f 	nop
   804a8:	d503201f 	nop
   804ac:	d503201f 	nop
   804b0:	d503201f 	nop
   804b4:	d503201f 	nop
   804b8:	d503201f 	nop
   804bc:	d503201f 	nop
   804c0:	d503201f 	nop
   804c4:	d503201f 	nop
   804c8:	d503201f 	nop
   804cc:	d503201f 	nop
   804d0:	d503201f 	nop
   804d4:	d503201f 	nop
   804d8:	d503201f 	nop
   804dc:	d503201f 	nop
   804e0:	d503201f 	nop
   804e4:	d503201f 	nop
   804e8:	d503201f 	nop
   804ec:	d503201f 	nop
   804f0:	d503201f 	nop
   804f4:	d503201f 	nop
   804f8:	d503201f 	nop
   804fc:	d503201f 	nop
   80500:	d503201f 	nop
   80504:	d503201f 	nop
   80508:	d503201f 	nop
   8050c:	d503201f 	nop
   80510:	d503201f 	nop
   80514:	d503201f 	nop
   80518:	d503201f 	nop
   8051c:	d503201f 	nop
   80520:	d503201f 	nop
   80524:	d503201f 	nop
   80528:	d503201f 	nop
   8052c:	d503201f 	nop
   80530:	d503201f 	nop
   80534:	d503201f 	nop
   80538:	d503201f 	nop
   8053c:	d503201f 	nop
   80540:	d503201f 	nop
   80544:	d503201f 	nop
   80548:	d503201f 	nop
   8054c:	d503201f 	nop
   80550:	d503201f 	nop
   80554:	d503201f 	nop
   80558:	d503201f 	nop
   8055c:	d503201f 	nop
   80560:	d503201f 	nop
   80564:	d503201f 	nop
   80568:	d503201f 	nop
   8056c:	d503201f 	nop
   80570:	d503201f 	nop
   80574:	d503201f 	nop
   80578:	d503201f 	nop
   8057c:	d503201f 	nop
   80580:	d503201f 	nop
   80584:	d503201f 	nop
   80588:	d503201f 	nop
   8058c:	d503201f 	nop
   80590:	d503201f 	nop
   80594:	d503201f 	nop
   80598:	d503201f 	nop
   8059c:	d503201f 	nop
   805a0:	d503201f 	nop
   805a4:	d503201f 	nop
   805a8:	d503201f 	nop
   805ac:	d503201f 	nop
   805b0:	d503201f 	nop
   805b4:	d503201f 	nop
   805b8:	d503201f 	nop
   805bc:	d503201f 	nop
   805c0:	d503201f 	nop
   805c4:	d503201f 	nop
   805c8:	d503201f 	nop
   805cc:	d503201f 	nop
   805d0:	d503201f 	nop
   805d4:	d503201f 	nop
   805d8:	d503201f 	nop
   805dc:	d503201f 	nop
   805e0:	d503201f 	nop
   805e4:	d503201f 	nop
   805e8:	d503201f 	nop
   805ec:	d503201f 	nop
   805f0:	d503201f 	nop
   805f4:	d503201f 	nop
   805f8:	d503201f 	nop
   805fc:	d503201f 	nop
   80600:	d503201f 	nop
   80604:	d503201f 	nop
   80608:	d503201f 	nop
   8060c:	d503201f 	nop
   80610:	d503201f 	nop
   80614:	d503201f 	nop
   80618:	d503201f 	nop
   8061c:	d503201f 	nop
   80620:	d503201f 	nop
   80624:	d503201f 	nop
   80628:	d503201f 	nop
   8062c:	d503201f 	nop
   80630:	d503201f 	nop
   80634:	d503201f 	nop
   80638:	d503201f 	nop
   8063c:	d503201f 	nop
   80640:	d503201f 	nop
   80644:	d503201f 	nop
   80648:	d503201f 	nop
   8064c:	d503201f 	nop
   80650:	d503201f 	nop
   80654:	d503201f 	nop
   80658:	d503201f 	nop
   8065c:	d503201f 	nop
   80660:	d503201f 	nop
   80664:	d503201f 	nop
   80668:	d503201f 	nop
   8066c:	d503201f 	nop
   80670:	d503201f 	nop
   80674:	d503201f 	nop
   80678:	d503201f 	nop
   8067c:	d503201f 	nop
   80680:	d503201f 	nop
   80684:	d503201f 	nop
   80688:	d503201f 	nop
   8068c:	d503201f 	nop
   80690:	d503201f 	nop
   80694:	d503201f 	nop
   80698:	d503201f 	nop
   8069c:	d503201f 	nop
   806a0:	d503201f 	nop
   806a4:	d503201f 	nop
   806a8:	d503201f 	nop
   806ac:	d503201f 	nop
   806b0:	d503201f 	nop
   806b4:	d503201f 	nop
   806b8:	d503201f 	nop
   806bc:	d503201f 	nop
   806c0:	d503201f 	nop
   806c4:	d503201f 	nop
   806c8:	d503201f 	nop
   806cc:	d503201f 	nop
   806d0:	d503201f 	nop
   806d4:	d503201f 	nop
   806d8:	d503201f 	nop
   806dc:	d503201f 	nop
   806e0:	d503201f 	nop
   806e4:	d503201f 	nop
   806e8:	d503201f 	nop
   806ec:	d503201f 	nop
   806f0:	d503201f 	nop
   806f4:	d503201f 	nop
   806f8:	d503201f 	nop
   806fc:	d503201f 	nop
   80700:	d503201f 	nop
   80704:	d503201f 	nop
   80708:	d503201f 	nop
   8070c:	d503201f 	nop
   80710:	d503201f 	nop
   80714:	d503201f 	nop
   80718:	d503201f 	nop
   8071c:	d503201f 	nop
   80720:	d503201f 	nop
   80724:	d503201f 	nop
   80728:	d503201f 	nop
   8072c:	d503201f 	nop
   80730:	d503201f 	nop
   80734:	d503201f 	nop
   80738:	d503201f 	nop
   8073c:	d503201f 	nop
   80740:	d503201f 	nop
   80744:	d503201f 	nop
   80748:	d503201f 	nop
   8074c:	d503201f 	nop
   80750:	d503201f 	nop
   80754:	d503201f 	nop
   80758:	d503201f 	nop
   8075c:	d503201f 	nop
   80760:	d503201f 	nop
   80764:	d503201f 	nop
   80768:	d503201f 	nop
   8076c:	d503201f 	nop
   80770:	d503201f 	nop
   80774:	d503201f 	nop
   80778:	d503201f 	nop
   8077c:	d503201f 	nop
   80780:	d503201f 	nop
   80784:	d503201f 	nop
   80788:	d503201f 	nop
   8078c:	d503201f 	nop
   80790:	d503201f 	nop
   80794:	d503201f 	nop
   80798:	d503201f 	nop
   8079c:	d503201f 	nop
   807a0:	d503201f 	nop
   807a4:	d503201f 	nop
   807a8:	d503201f 	nop
   807ac:	d503201f 	nop
   807b0:	d503201f 	nop
   807b4:	d503201f 	nop
   807b8:	d503201f 	nop
   807bc:	d503201f 	nop
   807c0:	d503201f 	nop
   807c4:	d503201f 	nop
   807c8:	d503201f 	nop
   807cc:	d503201f 	nop
   807d0:	d503201f 	nop
   807d4:	d503201f 	nop
   807d8:	d503201f 	nop
   807dc:	d503201f 	nop
   807e0:	d503201f 	nop
   807e4:	d503201f 	nop
   807e8:	d503201f 	nop
   807ec:	d503201f 	nop
   807f0:	d503201f 	nop
   807f4:	d503201f 	nop
   807f8:	d503201f 	nop
   807fc:	d503201f 	nop

0000000000080800 <exception_vector_table>:
   80800:	17fffe6a 	b	801a8 <not_supported>
   80804:	d503201f 	nop
   80808:	d503201f 	nop
   8080c:	d503201f 	nop
   80810:	d503201f 	nop
   80814:	d503201f 	nop
   80818:	d503201f 	nop
   8081c:	d503201f 	nop
   80820:	d503201f 	nop
   80824:	d503201f 	nop
   80828:	d503201f 	nop
   8082c:	d503201f 	nop
   80830:	d503201f 	nop
   80834:	d503201f 	nop
   80838:	d503201f 	nop
   8083c:	d503201f 	nop
   80840:	d503201f 	nop
   80844:	d503201f 	nop
   80848:	d503201f 	nop
   8084c:	d503201f 	nop
   80850:	d503201f 	nop
   80854:	d503201f 	nop
   80858:	d503201f 	nop
   8085c:	d503201f 	nop
   80860:	d503201f 	nop
   80864:	d503201f 	nop
   80868:	d503201f 	nop
   8086c:	d503201f 	nop
   80870:	d503201f 	nop
   80874:	d503201f 	nop
   80878:	d503201f 	nop
   8087c:	d503201f 	nop
   80880:	17fffe4a 	b	801a8 <not_supported>
   80884:	d503201f 	nop
   80888:	d503201f 	nop
   8088c:	d503201f 	nop
   80890:	d503201f 	nop
   80894:	d503201f 	nop
   80898:	d503201f 	nop
   8089c:	d503201f 	nop
   808a0:	d503201f 	nop
   808a4:	d503201f 	nop
   808a8:	d503201f 	nop
   808ac:	d503201f 	nop
   808b0:	d503201f 	nop
   808b4:	d503201f 	nop
   808b8:	d503201f 	nop
   808bc:	d503201f 	nop
   808c0:	d503201f 	nop
   808c4:	d503201f 	nop
   808c8:	d503201f 	nop
   808cc:	d503201f 	nop
   808d0:	d503201f 	nop
   808d4:	d503201f 	nop
   808d8:	d503201f 	nop
   808dc:	d503201f 	nop
   808e0:	d503201f 	nop
   808e4:	d503201f 	nop
   808e8:	d503201f 	nop
   808ec:	d503201f 	nop
   808f0:	d503201f 	nop
   808f4:	d503201f 	nop
   808f8:	d503201f 	nop
   808fc:	d503201f 	nop
   80900:	17fffe2a 	b	801a8 <not_supported>
   80904:	d503201f 	nop
   80908:	d503201f 	nop
   8090c:	d503201f 	nop
   80910:	d503201f 	nop
   80914:	d503201f 	nop
   80918:	d503201f 	nop
   8091c:	d503201f 	nop
   80920:	d503201f 	nop
   80924:	d503201f 	nop
   80928:	d503201f 	nop
   8092c:	d503201f 	nop
   80930:	d503201f 	nop
   80934:	d503201f 	nop
   80938:	d503201f 	nop
   8093c:	d503201f 	nop
   80940:	d503201f 	nop
   80944:	d503201f 	nop
   80948:	d503201f 	nop
   8094c:	d503201f 	nop
   80950:	d503201f 	nop
   80954:	d503201f 	nop
   80958:	d503201f 	nop
   8095c:	d503201f 	nop
   80960:	d503201f 	nop
   80964:	d503201f 	nop
   80968:	d503201f 	nop
   8096c:	d503201f 	nop
   80970:	d503201f 	nop
   80974:	d503201f 	nop
   80978:	d503201f 	nop
   8097c:	d503201f 	nop
   80980:	17fffe0a 	b	801a8 <not_supported>
   80984:	d503201f 	nop
   80988:	d503201f 	nop
   8098c:	d503201f 	nop
   80990:	d503201f 	nop
   80994:	d503201f 	nop
   80998:	d503201f 	nop
   8099c:	d503201f 	nop
   809a0:	d503201f 	nop
   809a4:	d503201f 	nop
   809a8:	d503201f 	nop
   809ac:	d503201f 	nop
   809b0:	d503201f 	nop
   809b4:	d503201f 	nop
   809b8:	d503201f 	nop
   809bc:	d503201f 	nop
   809c0:	d503201f 	nop
   809c4:	d503201f 	nop
   809c8:	d503201f 	nop
   809cc:	d503201f 	nop
   809d0:	d503201f 	nop
   809d4:	d503201f 	nop
   809d8:	d503201f 	nop
   809dc:	d503201f 	nop
   809e0:	d503201f 	nop
   809e4:	d503201f 	nop
   809e8:	d503201f 	nop
   809ec:	d503201f 	nop
   809f0:	d503201f 	nop
   809f4:	d503201f 	nop
   809f8:	d503201f 	nop
   809fc:	d503201f 	nop
   80a00:	17fffdea 	b	801a8 <not_supported>
   80a04:	d503201f 	nop
   80a08:	d503201f 	nop
   80a0c:	d503201f 	nop
   80a10:	d503201f 	nop
   80a14:	d503201f 	nop
   80a18:	d503201f 	nop
   80a1c:	d503201f 	nop
   80a20:	d503201f 	nop
   80a24:	d503201f 	nop
   80a28:	d503201f 	nop
   80a2c:	d503201f 	nop
   80a30:	d503201f 	nop
   80a34:	d503201f 	nop
   80a38:	d503201f 	nop
   80a3c:	d503201f 	nop
   80a40:	d503201f 	nop
   80a44:	d503201f 	nop
   80a48:	d503201f 	nop
   80a4c:	d503201f 	nop
   80a50:	d503201f 	nop
   80a54:	d503201f 	nop
   80a58:	d503201f 	nop
   80a5c:	d503201f 	nop
   80a60:	d503201f 	nop
   80a64:	d503201f 	nop
   80a68:	d503201f 	nop
   80a6c:	d503201f 	nop
   80a70:	d503201f 	nop
   80a74:	d503201f 	nop
   80a78:	d503201f 	nop
   80a7c:	d503201f 	nop
   80a80:	17fffda6 	b	80118 <irq>
   80a84:	d503201f 	nop
   80a88:	d503201f 	nop
   80a8c:	d503201f 	nop
   80a90:	d503201f 	nop
   80a94:	d503201f 	nop
   80a98:	d503201f 	nop
   80a9c:	d503201f 	nop
   80aa0:	d503201f 	nop
   80aa4:	d503201f 	nop
   80aa8:	d503201f 	nop
   80aac:	d503201f 	nop
   80ab0:	d503201f 	nop
   80ab4:	d503201f 	nop
   80ab8:	d503201f 	nop
   80abc:	d503201f 	nop
   80ac0:	d503201f 	nop
   80ac4:	d503201f 	nop
   80ac8:	d503201f 	nop
   80acc:	d503201f 	nop
   80ad0:	d503201f 	nop
   80ad4:	d503201f 	nop
   80ad8:	d503201f 	nop
   80adc:	d503201f 	nop
   80ae0:	d503201f 	nop
   80ae4:	d503201f 	nop
   80ae8:	d503201f 	nop
   80aec:	d503201f 	nop
   80af0:	d503201f 	nop
   80af4:	d503201f 	nop
   80af8:	d503201f 	nop
   80afc:	d503201f 	nop
   80b00:	17fffdaa 	b	801a8 <not_supported>
   80b04:	d503201f 	nop
   80b08:	d503201f 	nop
   80b0c:	d503201f 	nop
   80b10:	d503201f 	nop
   80b14:	d503201f 	nop
   80b18:	d503201f 	nop
   80b1c:	d503201f 	nop
   80b20:	d503201f 	nop
   80b24:	d503201f 	nop
   80b28:	d503201f 	nop
   80b2c:	d503201f 	nop
   80b30:	d503201f 	nop
   80b34:	d503201f 	nop
   80b38:	d503201f 	nop
   80b3c:	d503201f 	nop
   80b40:	d503201f 	nop
   80b44:	d503201f 	nop
   80b48:	d503201f 	nop
   80b4c:	d503201f 	nop
   80b50:	d503201f 	nop
   80b54:	d503201f 	nop
   80b58:	d503201f 	nop
   80b5c:	d503201f 	nop
   80b60:	d503201f 	nop
   80b64:	d503201f 	nop
   80b68:	d503201f 	nop
   80b6c:	d503201f 	nop
   80b70:	d503201f 	nop
   80b74:	d503201f 	nop
   80b78:	d503201f 	nop
   80b7c:	d503201f 	nop
   80b80:	17fffd8a 	b	801a8 <not_supported>
   80b84:	d503201f 	nop
   80b88:	d503201f 	nop
   80b8c:	d503201f 	nop
   80b90:	d503201f 	nop
   80b94:	d503201f 	nop
   80b98:	d503201f 	nop
   80b9c:	d503201f 	nop
   80ba0:	d503201f 	nop
   80ba4:	d503201f 	nop
   80ba8:	d503201f 	nop
   80bac:	d503201f 	nop
   80bb0:	d503201f 	nop
   80bb4:	d503201f 	nop
   80bb8:	d503201f 	nop
   80bbc:	d503201f 	nop
   80bc0:	d503201f 	nop
   80bc4:	d503201f 	nop
   80bc8:	d503201f 	nop
   80bcc:	d503201f 	nop
   80bd0:	d503201f 	nop
   80bd4:	d503201f 	nop
   80bd8:	d503201f 	nop
   80bdc:	d503201f 	nop
   80be0:	d503201f 	nop
   80be4:	d503201f 	nop
   80be8:	d503201f 	nop
   80bec:	d503201f 	nop
   80bf0:	d503201f 	nop
   80bf4:	d503201f 	nop
   80bf8:	d503201f 	nop
   80bfc:	d503201f 	nop
   80c00:	17fffd22 	b	80088 <syn>
   80c04:	d503201f 	nop
   80c08:	d503201f 	nop
   80c0c:	d503201f 	nop
   80c10:	d503201f 	nop
   80c14:	d503201f 	nop
   80c18:	d503201f 	nop
   80c1c:	d503201f 	nop
   80c20:	d503201f 	nop
   80c24:	d503201f 	nop
   80c28:	d503201f 	nop
   80c2c:	d503201f 	nop
   80c30:	d503201f 	nop
   80c34:	d503201f 	nop
   80c38:	d503201f 	nop
   80c3c:	d503201f 	nop
   80c40:	d503201f 	nop
   80c44:	d503201f 	nop
   80c48:	d503201f 	nop
   80c4c:	d503201f 	nop
   80c50:	d503201f 	nop
   80c54:	d503201f 	nop
   80c58:	d503201f 	nop
   80c5c:	d503201f 	nop
   80c60:	d503201f 	nop
   80c64:	d503201f 	nop
   80c68:	d503201f 	nop
   80c6c:	d503201f 	nop
   80c70:	d503201f 	nop
   80c74:	d503201f 	nop
   80c78:	d503201f 	nop
   80c7c:	d503201f 	nop
   80c80:	17fffd26 	b	80118 <irq>
   80c84:	d503201f 	nop
   80c88:	d503201f 	nop
   80c8c:	d503201f 	nop
   80c90:	d503201f 	nop
   80c94:	d503201f 	nop
   80c98:	d503201f 	nop
   80c9c:	d503201f 	nop
   80ca0:	d503201f 	nop
   80ca4:	d503201f 	nop
   80ca8:	d503201f 	nop
   80cac:	d503201f 	nop
   80cb0:	d503201f 	nop
   80cb4:	d503201f 	nop
   80cb8:	d503201f 	nop
   80cbc:	d503201f 	nop
   80cc0:	d503201f 	nop
   80cc4:	d503201f 	nop
   80cc8:	d503201f 	nop
   80ccc:	d503201f 	nop
   80cd0:	d503201f 	nop
   80cd4:	d503201f 	nop
   80cd8:	d503201f 	nop
   80cdc:	d503201f 	nop
   80ce0:	d503201f 	nop
   80ce4:	d503201f 	nop
   80ce8:	d503201f 	nop
   80cec:	d503201f 	nop
   80cf0:	d503201f 	nop
   80cf4:	d503201f 	nop
   80cf8:	d503201f 	nop
   80cfc:	d503201f 	nop
   80d00:	17fffd2a 	b	801a8 <not_supported>
   80d04:	d503201f 	nop
   80d08:	d503201f 	nop
   80d0c:	d503201f 	nop
   80d10:	d503201f 	nop
   80d14:	d503201f 	nop
   80d18:	d503201f 	nop
   80d1c:	d503201f 	nop
   80d20:	d503201f 	nop
   80d24:	d503201f 	nop
   80d28:	d503201f 	nop
   80d2c:	d503201f 	nop
   80d30:	d503201f 	nop
   80d34:	d503201f 	nop
   80d38:	d503201f 	nop
   80d3c:	d503201f 	nop
   80d40:	d503201f 	nop
   80d44:	d503201f 	nop
   80d48:	d503201f 	nop
   80d4c:	d503201f 	nop
   80d50:	d503201f 	nop
   80d54:	d503201f 	nop
   80d58:	d503201f 	nop
   80d5c:	d503201f 	nop
   80d60:	d503201f 	nop
   80d64:	d503201f 	nop
   80d68:	d503201f 	nop
   80d6c:	d503201f 	nop
   80d70:	d503201f 	nop
   80d74:	d503201f 	nop
   80d78:	d503201f 	nop
   80d7c:	d503201f 	nop
   80d80:	17fffd0a 	b	801a8 <not_supported>
   80d84:	d503201f 	nop
   80d88:	d503201f 	nop
   80d8c:	d503201f 	nop
   80d90:	d503201f 	nop
   80d94:	d503201f 	nop
   80d98:	d503201f 	nop
   80d9c:	d503201f 	nop
   80da0:	d503201f 	nop
   80da4:	d503201f 	nop
   80da8:	d503201f 	nop
   80dac:	d503201f 	nop
   80db0:	d503201f 	nop
   80db4:	d503201f 	nop
   80db8:	d503201f 	nop
   80dbc:	d503201f 	nop
   80dc0:	d503201f 	nop
   80dc4:	d503201f 	nop
   80dc8:	d503201f 	nop
   80dcc:	d503201f 	nop
   80dd0:	d503201f 	nop
   80dd4:	d503201f 	nop
   80dd8:	d503201f 	nop
   80ddc:	d503201f 	nop
   80de0:	d503201f 	nop
   80de4:	d503201f 	nop
   80de8:	d503201f 	nop
   80dec:	d503201f 	nop
   80df0:	d503201f 	nop
   80df4:	d503201f 	nop
   80df8:	d503201f 	nop
   80dfc:	d503201f 	nop
   80e00:	17fffcea 	b	801a8 <not_supported>
   80e04:	d503201f 	nop
   80e08:	d503201f 	nop
   80e0c:	d503201f 	nop
   80e10:	d503201f 	nop
   80e14:	d503201f 	nop
   80e18:	d503201f 	nop
   80e1c:	d503201f 	nop
   80e20:	d503201f 	nop
   80e24:	d503201f 	nop
   80e28:	d503201f 	nop
   80e2c:	d503201f 	nop
   80e30:	d503201f 	nop
   80e34:	d503201f 	nop
   80e38:	d503201f 	nop
   80e3c:	d503201f 	nop
   80e40:	d503201f 	nop
   80e44:	d503201f 	nop
   80e48:	d503201f 	nop
   80e4c:	d503201f 	nop
   80e50:	d503201f 	nop
   80e54:	d503201f 	nop
   80e58:	d503201f 	nop
   80e5c:	d503201f 	nop
   80e60:	d503201f 	nop
   80e64:	d503201f 	nop
   80e68:	d503201f 	nop
   80e6c:	d503201f 	nop
   80e70:	d503201f 	nop
   80e74:	d503201f 	nop
   80e78:	d503201f 	nop
   80e7c:	d503201f 	nop
   80e80:	17fffcca 	b	801a8 <not_supported>
   80e84:	d503201f 	nop
   80e88:	d503201f 	nop
   80e8c:	d503201f 	nop
   80e90:	d503201f 	nop
   80e94:	d503201f 	nop
   80e98:	d503201f 	nop
   80e9c:	d503201f 	nop
   80ea0:	d503201f 	nop
   80ea4:	d503201f 	nop
   80ea8:	d503201f 	nop
   80eac:	d503201f 	nop
   80eb0:	d503201f 	nop
   80eb4:	d503201f 	nop
   80eb8:	d503201f 	nop
   80ebc:	d503201f 	nop
   80ec0:	d503201f 	nop
   80ec4:	d503201f 	nop
   80ec8:	d503201f 	nop
   80ecc:	d503201f 	nop
   80ed0:	d503201f 	nop
   80ed4:	d503201f 	nop
   80ed8:	d503201f 	nop
   80edc:	d503201f 	nop
   80ee0:	d503201f 	nop
   80ee4:	d503201f 	nop
   80ee8:	d503201f 	nop
   80eec:	d503201f 	nop
   80ef0:	d503201f 	nop
   80ef4:	d503201f 	nop
   80ef8:	d503201f 	nop
   80efc:	d503201f 	nop
   80f00:	17fffcaa 	b	801a8 <not_supported>
   80f04:	d503201f 	nop
   80f08:	d503201f 	nop
   80f0c:	d503201f 	nop
   80f10:	d503201f 	nop
   80f14:	d503201f 	nop
   80f18:	d503201f 	nop
   80f1c:	d503201f 	nop
   80f20:	d503201f 	nop
   80f24:	d503201f 	nop
   80f28:	d503201f 	nop
   80f2c:	d503201f 	nop
   80f30:	d503201f 	nop
   80f34:	d503201f 	nop
   80f38:	d503201f 	nop
   80f3c:	d503201f 	nop
   80f40:	d503201f 	nop
   80f44:	d503201f 	nop
   80f48:	d503201f 	nop
   80f4c:	d503201f 	nop
   80f50:	d503201f 	nop
   80f54:	d503201f 	nop
   80f58:	d503201f 	nop
   80f5c:	d503201f 	nop
   80f60:	d503201f 	nop
   80f64:	d503201f 	nop
   80f68:	d503201f 	nop
   80f6c:	d503201f 	nop
   80f70:	d503201f 	nop
   80f74:	d503201f 	nop
   80f78:	d503201f 	nop
   80f7c:	d503201f 	nop
   80f80:	17fffc8a 	b	801a8 <not_supported>
   80f84:	d503201f 	nop
   80f88:	d503201f 	nop
   80f8c:	d503201f 	nop
   80f90:	d503201f 	nop
   80f94:	d503201f 	nop
   80f98:	d503201f 	nop
   80f9c:	d503201f 	nop
   80fa0:	d503201f 	nop
   80fa4:	d503201f 	nop
   80fa8:	d503201f 	nop
   80fac:	d503201f 	nop
   80fb0:	d503201f 	nop
   80fb4:	d503201f 	nop
   80fb8:	d503201f 	nop
   80fbc:	d503201f 	nop
   80fc0:	d503201f 	nop
   80fc4:	d503201f 	nop
   80fc8:	d503201f 	nop
   80fcc:	d503201f 	nop
   80fd0:	d503201f 	nop
   80fd4:	d503201f 	nop
   80fd8:	d503201f 	nop
   80fdc:	d503201f 	nop
   80fe0:	d503201f 	nop
   80fe4:	d503201f 	nop
   80fe8:	d503201f 	nop
   80fec:	d503201f 	nop
   80ff0:	d503201f 	nop
   80ff4:	d503201f 	nop
   80ff8:	d503201f 	nop
   80ffc:	d503201f 	nop
   81000:	00080000 	.word	0x00080000
   81004:	00000000 	.word	0x00000000
   81008:	00084540 	.word	0x00084540
   8100c:	00000000 	.word	0x00000000
   81010:	00008159 	.word	0x00008159
   81014:	00000000 	.word	0x00000000

0000000000081018 <exec>:
   81018:	a9bd7bfd 	stp	x29, x30, [sp, #-48]!
   8101c:	910003fd 	mov	x29, sp
   81020:	a90153f3 	stp	x19, x20, [sp, #16]
   81024:	aa0103f4 	mov	x20, x1
   81028:	aa0003f3 	mov	x19, x0
   8102c:	d2840000 	mov	x0, #0x2000                	// #8192
   81030:	a9025bf5 	stp	x21, x22, [sp, #32]
   81034:	2a0203f5 	mov	w21, w2
   81038:	940004c4 	bl	82348 <malloc>
   8103c:	aa0003e3 	mov	x3, x0
   81040:	aa1403e1 	mov	x1, x20
   81044:	aa1303e0 	mov	x0, x19
   81048:	91400874 	add	x20, x3, #0x2, lsl #12
   8104c:	94000485 	bl	82260 <cpio_load>
   81050:	b4000380 	cbz	x0, 810c0 <exec+0xa8>
   81054:	aa0003f3 	mov	x19, x0
   81058:	d5384256 	mrs	x22, currentel
   8105c:	d0000000 	adrp	x0, 83000 <print_buddy_info+0xa0>
   81060:	910a4000 	add	x0, x0, #0x290
   81064:	94000259 	bl	819c8 <uart_puts>
   81068:	53027ec0 	lsr	w0, w22, #2
   8106c:	9400026f 	bl	81a28 <uart_hex>
   81070:	d0000000 	adrp	x0, 83000 <print_buddy_info+0xa0>
   81074:	9123c000 	add	x0, x0, #0x8f0
   81078:	94000254 	bl	819c8 <uart_puts>
   8107c:	d0000000 	adrp	x0, 83000 <print_buddy_info+0xa0>
   81080:	910a8000 	add	x0, x0, #0x2a0
   81084:	94000251 	bl	819c8 <uart_puts>
   81088:	350000f5 	cbnz	w21, 810a4 <exec+0x8c>
   8108c:	aa1403e1 	mov	x1, x20
   81090:	aa1303e0 	mov	x0, x19
   81094:	a94153f3 	ldp	x19, x20, [sp, #16]
   81098:	a9425bf5 	ldp	x21, x22, [sp, #32]
   8109c:	a8c37bfd 	ldp	x29, x30, [sp], #48
   810a0:	17fffbf5 	b	80074 <from_EL1_to_EL0>
   810a4:	94000515 	bl	824f8 <core_timer_enable>
   810a8:	aa1403e1 	mov	x1, x20
   810ac:	aa1303e0 	mov	x0, x19
   810b0:	a94153f3 	ldp	x19, x20, [sp, #16]
   810b4:	a9425bf5 	ldp	x21, x22, [sp, #32]
   810b8:	a8c37bfd 	ldp	x29, x30, [sp], #48
   810bc:	17fffbee 	b	80074 <from_EL1_to_EL0>
   810c0:	a94153f3 	ldp	x19, x20, [sp, #16]
   810c4:	d0000000 	adrp	x0, 83000 <print_buddy_info+0xa0>
   810c8:	a9425bf5 	ldp	x21, x22, [sp, #32]
   810cc:	9109c000 	add	x0, x0, #0x270
   810d0:	a8c37bfd 	ldp	x29, x30, [sp], #48
   810d4:	1400023d 	b	819c8 <uart_puts>

00000000000810d8 <print_sys_info>:
   810d8:	a9be7bfd 	stp	x29, x30, [sp, #-32]!
   810dc:	910003fd 	mov	x29, sp
   810e0:	910053e0 	add	x0, sp, #0x14
   810e4:	94000385 	bl	81ef8 <get_board_revision>
   810e8:	d0000000 	adrp	x0, 83000 <print_buddy_info+0xa0>
   810ec:	910b8000 	add	x0, x0, #0x2e0
   810f0:	94000236 	bl	819c8 <uart_puts>
   810f4:	b94017e0 	ldr	w0, [sp, #20]
   810f8:	9400024c 	bl	81a28 <uart_hex>
   810fc:	910073e1 	add	x1, sp, #0x1c
   81100:	910063e0 	add	x0, sp, #0x18
   81104:	940003a3 	bl	81f90 <get_arm_memory>
   81108:	d0000000 	adrp	x0, 83000 <print_buddy_info+0xa0>
   8110c:	910be000 	add	x0, x0, #0x2f8
   81110:	9400022e 	bl	819c8 <uart_puts>
   81114:	b9401be0 	ldr	w0, [sp, #24]
   81118:	94000244 	bl	81a28 <uart_hex>
   8111c:	d0000000 	adrp	x0, 83000 <print_buddy_info+0xa0>
   81120:	910c2000 	add	x0, x0, #0x308
   81124:	94000229 	bl	819c8 <uart_puts>
   81128:	b9401fe0 	ldr	w0, [sp, #28]
   8112c:	9400023f 	bl	81a28 <uart_hex>
   81130:	d0000000 	adrp	x0, 83000 <print_buddy_info+0xa0>
   81134:	9123c000 	add	x0, x0, #0x8f0
   81138:	94000224 	bl	819c8 <uart_puts>
   8113c:	a8c27bfd 	ldp	x29, x30, [sp], #32
   81140:	d65f03c0 	ret
   81144:	d503201f 	nop

0000000000081148 <welcome_msg>:
   81148:	d0000000 	adrp	x0, 83000 <print_buddy_info+0xa0>
   8114c:	910c6000 	add	x0, x0, #0x318
   81150:	1400021e 	b	819c8 <uart_puts>
   81154:	d503201f 	nop

0000000000081158 <helper>:
   81158:	a9be7bfd 	stp	x29, x30, [sp, #-32]!
   8115c:	910003fd 	mov	x29, sp
   81160:	f9000bf3 	str	x19, [sp, #16]
   81164:	d0000013 	adrp	x19, 83000 <print_buddy_info+0xa0>
   81168:	910d4273 	add	x19, x19, #0x350
   8116c:	aa1303e0 	mov	x0, x19
   81170:	94000216 	bl	819c8 <uart_puts>
   81174:	d0000000 	adrp	x0, 83000 <print_buddy_info+0xa0>
   81178:	910e2000 	add	x0, x0, #0x388
   8117c:	94000213 	bl	819c8 <uart_puts>
   81180:	d0000000 	adrp	x0, 83000 <print_buddy_info+0xa0>
   81184:	910ec000 	add	x0, x0, #0x3b0
   81188:	94000210 	bl	819c8 <uart_puts>
   8118c:	d0000000 	adrp	x0, 83000 <print_buddy_info+0xa0>
   81190:	910f6000 	add	x0, x0, #0x3d8
   81194:	9400020d 	bl	819c8 <uart_puts>
   81198:	d0000000 	adrp	x0, 83000 <print_buddy_info+0xa0>
   8119c:	91100000 	add	x0, x0, #0x400
   811a0:	9400020a 	bl	819c8 <uart_puts>
   811a4:	d0000000 	adrp	x0, 83000 <print_buddy_info+0xa0>
   811a8:	9110c000 	add	x0, x0, #0x430
   811ac:	94000207 	bl	819c8 <uart_puts>
   811b0:	d0000000 	adrp	x0, 83000 <print_buddy_info+0xa0>
   811b4:	9111e000 	add	x0, x0, #0x478
   811b8:	94000204 	bl	819c8 <uart_puts>
   811bc:	d0000000 	adrp	x0, 83000 <print_buddy_info+0xa0>
   811c0:	91128000 	add	x0, x0, #0x4a0
   811c4:	94000201 	bl	819c8 <uart_puts>
   811c8:	d0000000 	adrp	x0, 83000 <print_buddy_info+0xa0>
   811cc:	91132000 	add	x0, x0, #0x4c8
   811d0:	940001fe 	bl	819c8 <uart_puts>
   811d4:	d0000000 	adrp	x0, 83000 <print_buddy_info+0xa0>
   811d8:	9113c000 	add	x0, x0, #0x4f0
   811dc:	940001fb 	bl	819c8 <uart_puts>
   811e0:	d0000000 	adrp	x0, 83000 <print_buddy_info+0xa0>
   811e4:	91148000 	add	x0, x0, #0x520
   811e8:	940001f8 	bl	819c8 <uart_puts>
   811ec:	d0000000 	adrp	x0, 83000 <print_buddy_info+0xa0>
   811f0:	91154000 	add	x0, x0, #0x550
   811f4:	940001f5 	bl	819c8 <uart_puts>
   811f8:	aa1303e0 	mov	x0, x19
   811fc:	f9400bf3 	ldr	x19, [sp, #16]
   81200:	a8c27bfd 	ldp	x29, x30, [sp], #32
   81204:	140001f1 	b	819c8 <uart_puts>

0000000000081208 <cmd_reader>:
   81208:	a9bd7bfd 	stp	x29, x30, [sp, #-48]!
   8120c:	910003fd 	mov	x29, sp
   81210:	a9025bf5 	stp	x21, x22, [sp, #32]
   81214:	aa0003f5 	mov	x21, x0
   81218:	52801ff6 	mov	w22, #0xff                  	// #255
   8121c:	a90153f3 	stp	x19, x20, [sp, #16]
   81220:	52800014 	mov	w20, #0x0                   	// #0
   81224:	d503201f 	nop
   81228:	940001da 	bl	81990 <uart_getc>
   8122c:	12001c13 	and	w19, w0, #0xff
   81230:	2a1303e0 	mov	w0, w19
   81234:	7100367f 	cmp	w19, #0xd
   81238:	54ffff80 	b.eq	81228 <cmd_reader+0x20>  // b.none
   8123c:	9400019f 	bl	818b8 <uart_send>
   81240:	38344ab3 	strb	w19, [x21, w20, uxtw]
   81244:	11000681 	add	w1, w20, #0x1
   81248:	7103fc3f 	cmp	w1, #0xff
   8124c:	1a969034 	csel	w20, w1, w22, ls  // ls = plast
   81250:	71002a7f 	cmp	w19, #0xa
   81254:	54fffea1 	b.ne	81228 <cmd_reader+0x20>  // b.any
   81258:	51000694 	sub	w20, w20, #0x1
   8125c:	38344abf 	strb	wzr, [x21, w20, uxtw]
   81260:	a94153f3 	ldp	x19, x20, [sp, #16]
   81264:	a9425bf5 	ldp	x21, x22, [sp, #32]
   81268:	a8c37bfd 	ldp	x29, x30, [sp], #48
   8126c:	d65f03c0 	ret

0000000000081270 <cmd_handler>:
   81270:	a9ae7bfd 	stp	x29, x30, [sp, #-288]!
   81274:	910003fd 	mov	x29, sp
   81278:	a90153f3 	stp	x19, x20, [sp, #16]
   8127c:	d0000014 	adrp	x20, 83000 <print_buddy_info+0xa0>
   81280:	91160294 	add	x20, x20, #0x580
   81284:	aa0003f3 	mov	x19, x0
   81288:	aa1403e0 	mov	x0, x20
   8128c:	940001cf 	bl	819c8 <uart_puts>
   81290:	d0000001 	adrp	x1, 83000 <print_buddy_info+0xa0>
   81294:	aa1303e0 	mov	x0, x19
   81298:	91162021 	add	x1, x1, #0x588
   8129c:	940000bd 	bl	81590 <strcmp>
   812a0:	35000100 	cbnz	w0, 812c0 <cmd_handler+0x50>
   812a4:	d0000013 	adrp	x19, 83000 <print_buddy_info+0xa0>
   812a8:	97ffffac 	bl	81158 <helper>
   812ac:	9123c260 	add	x0, x19, #0x8f0
   812b0:	940001c6 	bl	819c8 <uart_puts>
   812b4:	a94153f3 	ldp	x19, x20, [sp, #16]
   812b8:	a8d27bfd 	ldp	x29, x30, [sp], #288
   812bc:	d65f03c0 	ret
   812c0:	d0000001 	adrp	x1, 83000 <print_buddy_info+0xa0>
   812c4:	aa1303e0 	mov	x0, x19
   812c8:	91164021 	add	x1, x1, #0x590
   812cc:	940000b1 	bl	81590 <strcmp>
   812d0:	35000140 	cbnz	w0, 812f8 <cmd_handler+0x88>
   812d4:	d0000000 	adrp	x0, 83000 <print_buddy_info+0xa0>
   812d8:	91166000 	add	x0, x0, #0x598
   812dc:	940001bb 	bl	819c8 <uart_puts>
   812e0:	d0000013 	adrp	x19, 83000 <print_buddy_info+0xa0>
   812e4:	9123c260 	add	x0, x19, #0x8f0
   812e8:	940001b8 	bl	819c8 <uart_puts>
   812ec:	a94153f3 	ldp	x19, x20, [sp, #16]
   812f0:	a8d27bfd 	ldp	x29, x30, [sp], #288
   812f4:	d65f03c0 	ret
   812f8:	d0000001 	adrp	x1, 83000 <print_buddy_info+0xa0>
   812fc:	aa1303e0 	mov	x0, x19
   81300:	9116a021 	add	x1, x1, #0x5a8
   81304:	940000a3 	bl	81590 <strcmp>
   81308:	34000140 	cbz	w0, 81330 <cmd_handler+0xc0>
   8130c:	d0000001 	adrp	x1, 83000 <print_buddy_info+0xa0>
   81310:	aa1303e0 	mov	x0, x19
   81314:	9109a021 	add	x1, x1, #0x268
   81318:	9400009e 	bl	81590 <strcmp>
   8131c:	35000200 	cbnz	w0, 8135c <cmd_handler+0xec>
   81320:	aa1403e0 	mov	x0, x20
   81324:	d0000013 	adrp	x19, 83000 <print_buddy_info+0xa0>
   81328:	940001a8 	bl	819c8 <uart_puts>
   8132c:	17ffffe0 	b	812ac <cmd_handler+0x3c>
   81330:	d0000000 	adrp	x0, 83000 <print_buddy_info+0xa0>
   81334:	9116c000 	add	x0, x0, #0x5b0
   81338:	940001a4 	bl	819c8 <uart_puts>
   8133c:	d0000013 	adrp	x19, 83000 <print_buddy_info+0xa0>
   81340:	52800c80 	mov	w0, #0x64                  	// #100
   81344:	940002bd 	bl	81e38 <reboot>
   81348:	9123c260 	add	x0, x19, #0x8f0
   8134c:	9400019f 	bl	819c8 <uart_puts>
   81350:	a94153f3 	ldp	x19, x20, [sp, #16]
   81354:	a8d27bfd 	ldp	x29, x30, [sp], #288
   81358:	d65f03c0 	ret
   8135c:	d0000001 	adrp	x1, 83000 <print_buddy_info+0xa0>
   81360:	aa1303e0 	mov	x0, x19
   81364:	91174021 	add	x1, x1, #0x5d0
   81368:	9400008a 	bl	81590 <strcmp>
   8136c:	34000180 	cbz	w0, 8139c <cmd_handler+0x12c>
   81370:	d0000001 	adrp	x1, 83000 <print_buddy_info+0xa0>
   81374:	aa1303e0 	mov	x0, x19
   81378:	91176021 	add	x1, x1, #0x5d8
   8137c:	94000085 	bl	81590 <strcmp>
   81380:	35000140 	cbnz	w0, 813a8 <cmd_handler+0x138>
   81384:	f0000000 	adrp	x0, 84000 <main+0xdd8>
   81388:	d0000013 	adrp	x19, 83000 <print_buddy_info+0xa0>
   8138c:	f9428000 	ldr	x0, [x0, #1280]
   81390:	f9400000 	ldr	x0, [x0]
   81394:	94000367 	bl	82130 <cpio_ls>
   81398:	17ffffc5 	b	812ac <cmd_handler+0x3c>
   8139c:	d0000013 	adrp	x19, 83000 <print_buddy_info+0xa0>
   813a0:	97ffff4e 	bl	810d8 <print_sys_info>
   813a4:	17ffffc2 	b	812ac <cmd_handler+0x3c>
   813a8:	d0000001 	adrp	x1, 83000 <print_buddy_info+0xa0>
   813ac:	aa1303e0 	mov	x0, x19
   813b0:	91178021 	add	x1, x1, #0x5e0
   813b4:	94000077 	bl	81590 <strcmp>
   813b8:	35000220 	cbnz	w0, 813fc <cmd_handler+0x18c>
   813bc:	910083f3 	add	x19, sp, #0x20
   813c0:	d0000000 	adrp	x0, 83000 <print_buddy_info+0xa0>
   813c4:	9117a000 	add	x0, x0, #0x5e8
   813c8:	94000180 	bl	819c8 <uart_puts>
   813cc:	aa1303e0 	mov	x0, x19
   813d0:	97ffff8e 	bl	81208 <cmd_reader>
   813d4:	d0000000 	adrp	x0, 83000 <print_buddy_info+0xa0>
   813d8:	9117e000 	add	x0, x0, #0x5f8
   813dc:	9400017b 	bl	819c8 <uart_puts>
   813e0:	f0000000 	adrp	x0, 84000 <main+0xdd8>
   813e4:	aa1303e1 	mov	x1, x19
   813e8:	d0000013 	adrp	x19, 83000 <print_buddy_info+0xa0>
   813ec:	f9428000 	ldr	x0, [x0, #1280]
   813f0:	f9400000 	ldr	x0, [x0]
   813f4:	9400036b 	bl	821a0 <cpio_cat>
   813f8:	17ffffad 	b	812ac <cmd_handler+0x3c>
   813fc:	d0000001 	adrp	x1, 83000 <print_buddy_info+0xa0>
   81400:	aa1303e0 	mov	x0, x19
   81404:	91180021 	add	x1, x1, #0x600
   81408:	94000062 	bl	81590 <strcmp>
   8140c:	35000240 	cbnz	w0, 81454 <cmd_handler+0x1e4>
   81410:	910083f3 	add	x19, sp, #0x20
   81414:	d0000000 	adrp	x0, 83000 <print_buddy_info+0xa0>
   81418:	91182000 	add	x0, x0, #0x608
   8141c:	9400016b 	bl	819c8 <uart_puts>
   81420:	aa1303e0 	mov	x0, x19
   81424:	97ffff79 	bl	81208 <cmd_reader>
   81428:	d0000000 	adrp	x0, 83000 <print_buddy_info+0xa0>
   8142c:	9117e000 	add	x0, x0, #0x5f8
   81430:	94000166 	bl	819c8 <uart_puts>
   81434:	f0000000 	adrp	x0, 84000 <main+0xdd8>
   81438:	aa1303e1 	mov	x1, x19
   8143c:	52800002 	mov	w2, #0x0                   	// #0
   81440:	d0000013 	adrp	x19, 83000 <print_buddy_info+0xa0>
   81444:	f9428000 	ldr	x0, [x0, #1280]
   81448:	f9400000 	ldr	x0, [x0]
   8144c:	97fffef3 	bl	81018 <exec>
   81450:	17ffff97 	b	812ac <cmd_handler+0x3c>
   81454:	d0000001 	adrp	x1, 83000 <print_buddy_info+0xa0>
   81458:	aa1303e0 	mov	x0, x19
   8145c:	91184021 	add	x1, x1, #0x610
   81460:	9400004c 	bl	81590 <strcmp>
   81464:	35000240 	cbnz	w0, 814ac <cmd_handler+0x23c>
   81468:	910083f3 	add	x19, sp, #0x20
   8146c:	d0000000 	adrp	x0, 83000 <print_buddy_info+0xa0>
   81470:	91182000 	add	x0, x0, #0x608
   81474:	94000155 	bl	819c8 <uart_puts>
   81478:	aa1303e0 	mov	x0, x19
   8147c:	97ffff63 	bl	81208 <cmd_reader>
   81480:	d0000000 	adrp	x0, 83000 <print_buddy_info+0xa0>
   81484:	9117e000 	add	x0, x0, #0x5f8
   81488:	94000150 	bl	819c8 <uart_puts>
   8148c:	f0000000 	adrp	x0, 84000 <main+0xdd8>
   81490:	aa1303e1 	mov	x1, x19
   81494:	52800022 	mov	w2, #0x1                   	// #1
   81498:	d0000013 	adrp	x19, 83000 <print_buddy_info+0xa0>
   8149c:	f9428000 	ldr	x0, [x0, #1280]
   814a0:	f9400000 	ldr	x0, [x0]
   814a4:	97fffedd 	bl	81018 <exec>
   814a8:	17ffff81 	b	812ac <cmd_handler+0x3c>
   814ac:	d0000001 	adrp	x1, 83000 <print_buddy_info+0xa0>
   814b0:	aa1303e0 	mov	x0, x19
   814b4:	91188021 	add	x1, x1, #0x620
   814b8:	94000036 	bl	81590 <strcmp>
   814bc:	35000120 	cbnz	w0, 814e0 <cmd_handler+0x270>
   814c0:	d0000000 	adrp	x0, 83000 <print_buddy_info+0xa0>
   814c4:	9118a000 	add	x0, x0, #0x628
   814c8:	94000140 	bl	819c8 <uart_puts>
   814cc:	d0000013 	adrp	x19, 83000 <print_buddy_info+0xa0>
   814d0:	d0000000 	adrp	x0, 83000 <print_buddy_info+0xa0>
   814d4:	9118c000 	add	x0, x0, #0x630
   814d8:	940001ec 	bl	81c88 <asyn_uart_puts>
   814dc:	17ffff74 	b	812ac <cmd_handler+0x3c>
   814e0:	d0000001 	adrp	x1, 83000 <print_buddy_info+0xa0>
   814e4:	aa1303e0 	mov	x0, x19
   814e8:	91190021 	add	x1, x1, #0x640
   814ec:	94000029 	bl	81590 <strcmp>
   814f0:	35000100 	cbnz	w0, 81510 <cmd_handler+0x2a0>
   814f4:	9400024d 	bl	81e28 <async_uart_getc>
   814f8:	12001c00 	and	w0, w0, #0xff
   814fc:	940000ef 	bl	818b8 <uart_send>
   81500:	d0000013 	adrp	x19, 83000 <print_buddy_info+0xa0>
   81504:	9123c260 	add	x0, x19, #0x8f0
   81508:	94000130 	bl	819c8 <uart_puts>
   8150c:	17ffff68 	b	812ac <cmd_handler+0x3c>
   81510:	d0000001 	adrp	x1, 83000 <print_buddy_info+0xa0>
   81514:	aa1303e0 	mov	x0, x19
   81518:	91192021 	add	x1, x1, #0x648
   8151c:	9400001d 	bl	81590 <strcmp>
   81520:	35000080 	cbnz	w0, 81530 <cmd_handler+0x2c0>
   81524:	d0000013 	adrp	x19, 83000 <print_buddy_info+0xa0>
   81528:	940006be 	bl	83020 <mm>
   8152c:	17ffff60 	b	812ac <cmd_handler+0x3c>
   81530:	d0000013 	adrp	x19, 83000 <print_buddy_info+0xa0>
   81534:	d0000000 	adrp	x0, 83000 <print_buddy_info+0xa0>
   81538:	91194000 	add	x0, x0, #0x650
   8153c:	94000123 	bl	819c8 <uart_puts>
   81540:	17ffff5b 	b	812ac <cmd_handler+0x3c>
   81544:	d503201f 	nop

0000000000081548 <exe_shell>:
   81548:	a9ae7bfd 	stp	x29, x30, [sp, #-288]!
   8154c:	910003fd 	mov	x29, sp
   81550:	a90153f3 	stp	x19, x20, [sp, #16]
   81554:	d0000014 	adrp	x20, 83000 <print_buddy_info+0xa0>
   81558:	910083f3 	add	x19, sp, #0x20
   8155c:	9119a294 	add	x20, x20, #0x668
   81560:	97fffede 	bl	810d8 <print_sys_info>
   81564:	d0000000 	adrp	x0, 83000 <print_buddy_info+0xa0>
   81568:	910c6000 	add	x0, x0, #0x318
   8156c:	94000117 	bl	819c8 <uart_puts>
   81570:	aa1403e0 	mov	x0, x20
   81574:	94000115 	bl	819c8 <uart_puts>
   81578:	aa1303e0 	mov	x0, x19
   8157c:	97ffff23 	bl	81208 <cmd_reader>
   81580:	aa1303e0 	mov	x0, x19
   81584:	97ffff3b 	bl	81270 <cmd_handler>
   81588:	17fffffa 	b	81570 <exe_shell+0x28>
   8158c:	00000000 	.inst	0x00000000 ; undefined

0000000000081590 <strcmp>:
   81590:	39400003 	ldrb	w3, [x0]
   81594:	d1000424 	sub	x4, x1, #0x1
   81598:	d2800022 	mov	x2, #0x1                   	// #1
   8159c:	39400021 	ldrb	w1, [x1]
   815a0:	350000c3 	cbnz	w3, 815b8 <strcmp+0x28>
   815a4:	14000007 	b	815c0 <strcmp+0x30>
   815a8:	38626803 	ldrb	w3, [x0, x2]
   815ac:	91000442 	add	x2, x2, #0x1
   815b0:	38626881 	ldrb	w1, [x4, x2]
   815b4:	340000a3 	cbz	w3, 815c8 <strcmp+0x38>
   815b8:	6b01007f 	cmp	w3, w1
   815bc:	54ffff60 	b.eq	815a8 <strcmp+0x18>  // b.none
   815c0:	4b010060 	sub	w0, w3, w1
   815c4:	d65f03c0 	ret
   815c8:	52800003 	mov	w3, #0x0                   	// #0
   815cc:	4b010060 	sub	w0, w3, w1
   815d0:	d65f03c0 	ret
   815d4:	d503201f 	nop

00000000000815d8 <strncmp>:
   815d8:	34000202 	cbz	w2, 81618 <strncmp+0x40>
   815dc:	51000446 	sub	w6, w2, #0x1
   815e0:	d2800002 	mov	x2, #0x0                   	// #0
   815e4:	14000005 	b	815f8 <strncmp+0x20>
   815e8:	34000183 	cbz	w3, 81618 <strncmp+0x40>
   815ec:	eb06005f 	cmp	x2, x6
   815f0:	aa0503e2 	mov	x2, x5
   815f4:	54000120 	b.eq	81618 <strncmp+0x40>  // b.none
   815f8:	38626803 	ldrb	w3, [x0, x2]
   815fc:	91000445 	add	x5, x2, #0x1
   81600:	38626824 	ldrb	w4, [x1, x2]
   81604:	6b04007f 	cmp	w3, w4
   81608:	54ffff00 	b.eq	815e8 <strncmp+0x10>  // b.none
   8160c:	52800020 	mov	w0, #0x1                   	// #1
   81610:	5a802400 	cneg	w0, w0, cc  // cc = lo, ul, last
   81614:	d65f03c0 	ret
   81618:	52800000 	mov	w0, #0x0                   	// #0
   8161c:	d65f03c0 	ret

0000000000081620 <hexStr2int>:
   81620:	39400003 	ldrb	w3, [x0]
   81624:	7100003f 	cmp	w1, #0x0
   81628:	aa0003e5 	mov	x5, x0
   8162c:	7a40c864 	ccmp	w3, #0x0, #0x4, gt
   81630:	54000460 	b.eq	816bc <hexStr2int+0x9c>  // b.none
   81634:	aa0003e4 	mov	x4, x0
   81638:	d2800000 	mov	x0, #0x0                   	// #0
   8163c:	1400000a 	b	81664 <hexStr2int+0x44>
   81640:	2a0203e3 	mov	w3, w2
   81644:	b37cec03 	bfi	x3, x0, #4, #60
   81648:	4b040022 	sub	w2, w1, w4
   8164c:	aa0303e0 	mov	x0, x3
   81650:	0b050042 	add	w2, w2, w5
   81654:	39400083 	ldrb	w3, [x4]
   81658:	7100005f 	cmp	w2, #0x0
   8165c:	7a40c864 	ccmp	w3, #0x0, #0x4, gt
   81660:	54000260 	b.eq	816ac <hexStr2int+0x8c>  // b.none
   81664:	5100c062 	sub	w2, w3, #0x30
   81668:	51018466 	sub	w6, w3, #0x61
   8166c:	91000484 	add	x4, x4, #0x1
   81670:	7100245f 	cmp	w2, #0x9
   81674:	54fffe69 	b.ls	81640 <hexStr2int+0x20>  // b.plast
   81678:	51010467 	sub	w7, w3, #0x41
   8167c:	5100dc62 	sub	w2, w3, #0x37
   81680:	710014df 	cmp	w6, #0x5
   81684:	54000168 	b.hi	816b0 <hexStr2int+0x90>  // b.pmore
   81688:	51015c63 	sub	w3, w3, #0x57
   8168c:	4b040022 	sub	w2, w1, w4
   81690:	b37cec03 	bfi	x3, x0, #4, #60
   81694:	0b050042 	add	w2, w2, w5
   81698:	aa0303e0 	mov	x0, x3
   8169c:	39400083 	ldrb	w3, [x4]
   816a0:	7100005f 	cmp	w2, #0x0
   816a4:	7a40c864 	ccmp	w3, #0x0, #0x4, gt
   816a8:	54fffde1 	b.ne	81664 <hexStr2int+0x44>  // b.any
   816ac:	d65f03c0 	ret
   816b0:	710018ff 	cmp	w7, #0x6
   816b4:	1a833043 	csel	w3, w2, w3, cc  // cc = lo, ul, last
   816b8:	17ffffe3 	b	81644 <hexStr2int+0x24>
   816bc:	d2800000 	mov	x0, #0x0                   	// #0
   816c0:	d65f03c0 	ret
   816c4:	d503201f 	nop

00000000000816c8 <strlen>:
   816c8:	aa0003e2 	mov	x2, x0
   816cc:	39400000 	ldrb	w0, [x0]
   816d0:	340000c0 	cbz	w0, 816e8 <strlen+0x20>
   816d4:	52800000 	mov	w0, #0x0                   	// #0
   816d8:	11000400 	add	w0, w0, #0x1
   816dc:	38604841 	ldrb	w1, [x2, w0, uxtw]
   816e0:	35ffffc1 	cbnz	w1, 816d8 <strlen+0x10>
   816e4:	d65f03c0 	ret
   816e8:	52800000 	mov	w0, #0x0                   	// #0
   816ec:	d65f03c0 	ret

00000000000816f0 <atou>:
   816f0:	39400001 	ldrb	w1, [x0]
   816f4:	aa0003e3 	mov	x3, x0
   816f8:	d2800000 	mov	x0, #0x0                   	// #0
   816fc:	7100003f 	cmp	w1, #0x0
   81700:	7a4a1824 	ccmp	w1, #0xa, #0x4, ne  // ne = any
   81704:	540000e1 	b.ne	81720 <atou+0x30>  // b.any
   81708:	1400000d 	b	8173c <atou+0x4c>
   8170c:	38401c61 	ldrb	w1, [x3, #1]!
   81710:	8b22c000 	add	x0, x0, w2, sxtw
   81714:	7100003f 	cmp	w1, #0x0
   81718:	7a4a1824 	ccmp	w1, #0xa, #0x4, ne  // ne = any
   8171c:	54000100 	b.eq	8173c <atou+0x4c>  // b.none
   81720:	5100c022 	sub	w2, w1, #0x30
   81724:	8b000800 	add	x0, x0, x0, lsl #2
   81728:	12001c41 	and	w1, w2, #0xff
   8172c:	d37ff800 	lsl	x0, x0, #1
   81730:	7100243f 	cmp	w1, #0x9
   81734:	54fffec9 	b.ls	8170c <atou+0x1c>  // b.plast
   81738:	92800000 	mov	x0, #0xffffffffffffffff    	// #-1
   8173c:	d65f03c0 	ret

0000000000081740 <exp>:
   81740:	2a0003e1 	mov	w1, w0
   81744:	52800000 	mov	w0, #0x0                   	// #0
   81748:	7100043f 	cmp	w1, #0x1
   8174c:	540000ad 	b.le	81760 <exp+0x20>
   81750:	13017c21 	asr	w1, w1, #1
   81754:	11000400 	add	w0, w0, #0x1
   81758:	7100043f 	cmp	w1, #0x1
   8175c:	54ffffa1 	b.ne	81750 <exp+0x10>  // b.any
   81760:	d65f03c0 	ret
   81764:	d503201f 	nop

0000000000081768 <ceiling>:
   81768:	1e780000 	fcvtzs	w0, d0
   8176c:	1e620001 	scvtf	d1, w0
   81770:	1e602020 	fcmp	d1, d0
   81774:	1a800400 	cinc	w0, w0, ne  // ne = any
   81778:	d65f03c0 	ret
   8177c:	d503201f 	nop

0000000000081780 <pow>:
   81780:	2a0003e2 	mov	w2, w0
   81784:	7100003f 	cmp	w1, #0x0
   81788:	52800020 	mov	w0, #0x1                   	// #1
   8178c:	5400008d 	b.le	8179c <pow+0x1c>
   81790:	1b027c00 	mul	w0, w0, w2
   81794:	71000421 	subs	w1, w1, #0x1
   81798:	54ffffc1 	b.ne	81790 <pow+0x10>  // b.any
   8179c:	d65f03c0 	ret

00000000000817a0 <uart_init>:
   817a0:	d2800082 	mov	x2, #0x4                   	// #4
   817a4:	d2801283 	mov	x3, #0x94                  	// #148
   817a8:	f2a7e402 	movk	x2, #0x3f20, lsl #16
   817ac:	f2a7e403 	movk	x3, #0x3f20, lsl #16
   817b0:	52840004 	mov	w4, #0x2000                	// #8192
   817b4:	528012c0 	mov	w0, #0x96                  	// #150
   817b8:	b9400041 	ldr	w1, [x2]
   817bc:	72a00024 	movk	w4, #0x1, lsl #16
   817c0:	120e6421 	and	w1, w1, #0xfffc0fff
   817c4:	2a040021 	orr	w1, w1, w4
   817c8:	b9000041 	str	w1, [x2]
   817cc:	b900007f 	str	wzr, [x3]
   817d0:	d503201f 	nop
   817d4:	71000400 	subs	w0, w0, #0x1
   817d8:	54ffffc1 	b.ne	817d0 <uart_init+0x30>  // b.any
   817dc:	d2801301 	mov	x1, #0x98                  	// #152
   817e0:	52980002 	mov	w2, #0xc000                	// #49152
   817e4:	f2a7e401 	movk	x1, #0x3f20, lsl #16
   817e8:	528012c0 	mov	w0, #0x96                  	// #150
   817ec:	b9000022 	str	w2, [x1]
   817f0:	d503201f 	nop
   817f4:	71000400 	subs	w0, w0, #0x1
   817f8:	54ffffc1 	b.ne	817f0 <uart_init+0x50>  // b.any
   817fc:	d2801300 	mov	x0, #0x98                  	// #152
   81800:	d28a0081 	mov	x1, #0x5004                	// #20484
   81804:	f2a7e400 	movk	x0, #0x3f20, lsl #16
   81808:	f2a7e421 	movk	x1, #0x3f21, lsl #16
   8180c:	d28a0c05 	mov	x5, #0x5060                	// #20576
   81810:	d28a0989 	mov	x9, #0x504c                	// #20556
   81814:	b900001f 	str	wzr, [x0]
   81818:	f2a7e425 	movk	x5, #0x3f21, lsl #16
   8181c:	f2a7e429 	movk	x9, #0x3f21, lsl #16
   81820:	d28a0a07 	mov	x7, #0x5050                	// #20560
   81824:	b9400020 	ldr	w0, [x1]
   81828:	f2a7e427 	movk	x7, #0x3f21, lsl #16
   8182c:	d28a0884 	mov	x4, #0x5044                	// #20548
   81830:	52800066 	mov	w6, #0x3                   	// #3
   81834:	32000000 	orr	w0, w0, #0x1
   81838:	b9000020 	str	w0, [x1]
   8183c:	b90000bf 	str	wzr, [x5]
   81840:	f2a7e424 	movk	x4, #0x3f21, lsl #16
   81844:	d28a0908 	mov	x8, #0x5048                	// #20552
   81848:	b9000126 	str	w6, [x9]
   8184c:	f2a7e428 	movk	x8, #0x3f21, lsl #16
   81850:	f0000003 	adrp	x3, 84000 <main+0xdd8>
   81854:	f0000002 	adrp	x2, 84000 <main+0xdd8>
   81858:	f0000001 	adrp	x1, 84000 <main+0xdd8>
   8185c:	f0000000 	adrp	x0, 84000 <main+0xdd8>
   81860:	b90000ff 	str	wzr, [x7]
   81864:	b900009f 	str	wzr, [x4]
   81868:	528018c9 	mov	w9, #0xc6                  	// #198
   8186c:	f9426063 	ldr	x3, [x3, #1216]
   81870:	b9000109 	str	w9, [x8]
   81874:	f9425842 	ldr	x2, [x2, #1200]
   81878:	528021c8 	mov	w8, #0x10e                 	// #270
   8187c:	f9427821 	ldr	x1, [x1, #1264]
   81880:	b90018e8 	str	w8, [x7, #24]
   81884:	f9427400 	ldr	x0, [x0, #1256]
   81888:	b90000a6 	str	w6, [x5]
   8188c:	d2964205 	mov	x5, #0xb210                	// #45584
   81890:	b900009f 	str	wzr, [x4]
   81894:	f2a7e005 	movk	x5, #0x3f00, lsl #16
   81898:	b900007f 	str	wzr, [x3]
   8189c:	b900001f 	str	wzr, [x0]
   818a0:	52a40003 	mov	w3, #0x20000000            	// #536870912
   818a4:	b900003f 	str	wzr, [x1]
   818a8:	b900005f 	str	wzr, [x2]
   818ac:	b90000a3 	str	w3, [x5]
   818b0:	d65f03c0 	ret
   818b4:	d503201f 	nop

00000000000818b8 <uart_send>:
   818b8:	d28a0a82 	mov	x2, #0x5054                	// #20564
   818bc:	f2a7e422 	movk	x2, #0x3f21, lsl #16
   818c0:	d503201f 	nop
   818c4:	b9400041 	ldr	w1, [x2]
   818c8:	362fffc1 	tbz	w1, #5, 818c0 <uart_send+0x8>
   818cc:	d28a0801 	mov	x1, #0x5040                	// #20544
   818d0:	f2a7e421 	movk	x1, #0x3f21, lsl #16
   818d4:	b9000020 	str	w0, [x1]
   818d8:	d65f03c0 	ret
   818dc:	d503201f 	nop

00000000000818e0 <uart_put_int>:
   818e0:	b5000180 	cbnz	x0, 81910 <uart_put_int+0x30>
   818e4:	d28a0a81 	mov	x1, #0x5054                	// #20564
   818e8:	f2a7e421 	movk	x1, #0x3f21, lsl #16
   818ec:	d503201f 	nop
   818f0:	d503201f 	nop
   818f4:	b9400020 	ldr	w0, [x1]
   818f8:	362fffc0 	tbz	w0, #5, 818f0 <uart_put_int+0x10>
   818fc:	d28a0800 	mov	x0, #0x5040                	// #20544
   81900:	52800601 	mov	w1, #0x30                  	// #48
   81904:	f2a7e420 	movk	x0, #0x3f21, lsl #16
   81908:	b9000001 	str	w1, [x0]
   8190c:	d65f03c0 	ret
   81910:	a9be7bfd 	stp	x29, x30, [sp, #-32]!
   81914:	f100281f 	cmp	x0, #0xa
   81918:	910003fd 	mov	x29, sp
   8191c:	f9000bf3 	str	x19, [sp, #16]
   81920:	aa0003f3 	mov	x19, x0
   81924:	54000288 	b.hi	81974 <uart_put_int+0x94>  // b.pmore
   81928:	b202e7e2 	mov	x2, #0xcccccccccccccccc    	// #-3689348814741910324
   8192c:	d28a0a83 	mov	x3, #0x5054                	// #20564
   81930:	f29999a2 	movk	x2, #0xcccd
   81934:	f2a7e423 	movk	x3, #0x3f21, lsl #16
   81938:	9bc27e62 	umulh	x2, x19, x2
   8193c:	d343fc41 	lsr	x1, x2, #3
   81940:	8b010821 	add	x1, x1, x1, lsl #2
   81944:	cb010661 	sub	x1, x19, x1, lsl #1
   81948:	1100c021 	add	w1, w1, #0x30
   8194c:	d503201f 	nop
   81950:	d503201f 	nop
   81954:	b9400060 	ldr	w0, [x3]
   81958:	362fffc0 	tbz	w0, #5, 81950 <uart_put_int+0x70>
   8195c:	d28a0800 	mov	x0, #0x5040                	// #20544
   81960:	f2a7e420 	movk	x0, #0x3f21, lsl #16
   81964:	f9400bf3 	ldr	x19, [sp, #16]
   81968:	b9000001 	str	w1, [x0]
   8196c:	a8c27bfd 	ldp	x29, x30, [sp], #32
   81970:	d65f03c0 	ret
   81974:	b202e7e0 	mov	x0, #0xcccccccccccccccc    	// #-3689348814741910324
   81978:	f29999a0 	movk	x0, #0xcccd
   8197c:	9bc07e60 	umulh	x0, x19, x0
   81980:	d343fc00 	lsr	x0, x0, #3
   81984:	97ffffd7 	bl	818e0 <uart_put_int>
   81988:	17ffffe8 	b	81928 <uart_put_int+0x48>
   8198c:	d503201f 	nop

0000000000081990 <uart_getc>:
   81990:	d28a0a81 	mov	x1, #0x5054                	// #20564
   81994:	f2a7e421 	movk	x1, #0x3f21, lsl #16
   81998:	d503201f 	nop
   8199c:	b9400020 	ldr	w0, [x1]
   819a0:	3607ffc0 	tbz	w0, #0, 81998 <uart_getc+0x8>
   819a4:	d28a0800 	mov	x0, #0x5040                	// #20544
   819a8:	52800141 	mov	w1, #0xa                   	// #10
   819ac:	f2a7e420 	movk	x0, #0x3f21, lsl #16
   819b0:	b9400000 	ldr	w0, [x0]
   819b4:	12001c00 	and	w0, w0, #0xff
   819b8:	7100341f 	cmp	w0, #0xd
   819bc:	1a811000 	csel	w0, w0, w1, ne  // ne = any
   819c0:	d65f03c0 	ret
   819c4:	d503201f 	nop

00000000000819c8 <uart_puts>:
   819c8:	39400001 	ldrb	w1, [x0]
   819cc:	34000221 	cbz	w1, 81a10 <uart_puts+0x48>
   819d0:	d28a0a82 	mov	x2, #0x5054                	// #20564
   819d4:	d28a0804 	mov	x4, #0x5040                	// #20544
   819d8:	f2a7e422 	movk	x2, #0x3f21, lsl #16
   819dc:	f2a7e424 	movk	x4, #0x3f21, lsl #16
   819e0:	528001a5 	mov	w5, #0xd                   	// #13
   819e4:	d503201f 	nop
   819e8:	7100283f 	cmp	w1, #0xa
   819ec:	54000140 	b.eq	81a14 <uart_puts+0x4c>  // b.none
   819f0:	38401403 	ldrb	w3, [x0], #1
   819f4:	d503201f 	nop
   819f8:	d503201f 	nop
   819fc:	b9400041 	ldr	w1, [x2]
   81a00:	362fffc1 	tbz	w1, #5, 819f8 <uart_puts+0x30>
   81a04:	b9000083 	str	w3, [x4]
   81a08:	39400001 	ldrb	w1, [x0]
   81a0c:	35fffee1 	cbnz	w1, 819e8 <uart_puts+0x20>
   81a10:	d65f03c0 	ret
   81a14:	d503201f 	nop
   81a18:	b9400041 	ldr	w1, [x2]
   81a1c:	362fffc1 	tbz	w1, #5, 81a14 <uart_puts+0x4c>
   81a20:	b9000085 	str	w5, [x4]
   81a24:	17fffff3 	b	819f0 <uart_puts+0x28>

0000000000081a28 <uart_hex>:
   81a28:	d28a0a82 	mov	x2, #0x5054                	// #20564
   81a2c:	d28a0805 	mov	x5, #0x5040                	// #20544
   81a30:	52800383 	mov	w3, #0x1c                  	// #28
   81a34:	528006e7 	mov	w7, #0x37                  	// #55
   81a38:	52800606 	mov	w6, #0x30                  	// #48
   81a3c:	f2a7e422 	movk	x2, #0x3f21, lsl #16
   81a40:	f2a7e425 	movk	x5, #0x3f21, lsl #16
   81a44:	d503201f 	nop
   81a48:	1ac32401 	lsr	w1, w0, w3
   81a4c:	12000c21 	and	w1, w1, #0xf
   81a50:	7100243f 	cmp	w1, #0x9
   81a54:	1a8680e4 	csel	w4, w7, w6, hi  // hi = pmore
   81a58:	0b010084 	add	w4, w4, w1
   81a5c:	d503201f 	nop
   81a60:	d503201f 	nop
   81a64:	b9400041 	ldr	w1, [x2]
   81a68:	362fffc1 	tbz	w1, #5, 81a60 <uart_hex+0x38>
   81a6c:	b90000a4 	str	w4, [x5]
   81a70:	51001063 	sub	w3, w3, #0x4
   81a74:	3100107f 	cmn	w3, #0x4
   81a78:	54fffe81 	b.ne	81a48 <uart_hex+0x20>  // b.any
   81a7c:	d65f03c0 	ret

0000000000081a80 <uart_getline>:
   81a80:	d28a0a82 	mov	x2, #0x5054                	// #20564
   81a84:	d28a0805 	mov	x5, #0x5040                	// #20544
   81a88:	52800006 	mov	w6, #0x0                   	// #0
   81a8c:	f2a7e422 	movk	x2, #0x3f21, lsl #16
   81a90:	f2a7e425 	movk	x5, #0x3f21, lsl #16
   81a94:	d503201f 	nop
   81a98:	d503201f 	nop
   81a9c:	b9400041 	ldr	w1, [x2]
   81aa0:	3607ffc1 	tbz	w1, #0, 81a98 <uart_getline+0x18>
   81aa4:	b94000a1 	ldr	w1, [x5]
   81aa8:	12001c24 	and	w4, w1, #0xff
   81aac:	7100349f 	cmp	w4, #0xd
   81ab0:	540001a0 	b.eq	81ae4 <uart_getline+0x64>  // b.none
   81ab4:	12001c23 	and	w3, w1, #0xff
   81ab8:	373fff01 	tbnz	w1, #7, 81a98 <uart_getline+0x18>
   81abc:	d503201f 	nop
   81ac0:	d503201f 	nop
   81ac4:	b9400041 	ldr	w1, [x2]
   81ac8:	362fffc1 	tbz	w1, #5, 81ac0 <uart_getline+0x40>
   81acc:	b90000a3 	str	w3, [x5]
   81ad0:	7100289f 	cmp	w4, #0xa
   81ad4:	3826c804 	strb	w4, [x0, w6, sxtw]
   81ad8:	54000120 	b.eq	81afc <uart_getline+0x7c>  // b.none
   81adc:	110004c6 	add	w6, w6, #0x1
   81ae0:	17ffffee 	b	81a98 <uart_getline+0x18>
   81ae4:	52800143 	mov	w3, #0xa                   	// #10
   81ae8:	2a0303e4 	mov	w4, w3
   81aec:	d503201f 	nop
   81af0:	b9400041 	ldr	w1, [x2]
   81af4:	362ffe61 	tbz	w1, #5, 81ac0 <uart_getline+0x40>
   81af8:	17fffff5 	b	81acc <uart_getline+0x4c>
   81afc:	d65f03c0 	ret

0000000000081b00 <asyn_uart_init>:
   81b00:	f0000003 	adrp	x3, 84000 <main+0xdd8>
   81b04:	f0000002 	adrp	x2, 84000 <main+0xdd8>
   81b08:	f0000001 	adrp	x1, 84000 <main+0xdd8>
   81b0c:	f0000000 	adrp	x0, 84000 <main+0xdd8>
   81b10:	f9425842 	ldr	x2, [x2, #1200]
   81b14:	d28a0885 	mov	x5, #0x5044                	// #20548
   81b18:	f9426063 	ldr	x3, [x3, #1216]
   81b1c:	f2a7e425 	movk	x5, #0x3f21, lsl #16
   81b20:	f9427821 	ldr	x1, [x1, #1264]
   81b24:	d2964204 	mov	x4, #0xb210                	// #45584
   81b28:	f9427400 	ldr	x0, [x0, #1256]
   81b2c:	f2a7e004 	movk	x4, #0x3f00, lsl #16
   81b30:	b90000bf 	str	wzr, [x5]
   81b34:	b900005f 	str	wzr, [x2]
   81b38:	52a40002 	mov	w2, #0x20000000            	// #536870912
   81b3c:	b900001f 	str	wzr, [x0]
   81b40:	b900003f 	str	wzr, [x1]
   81b44:	b900007f 	str	wzr, [x3]
   81b48:	b9000082 	str	w2, [x4]
   81b4c:	d65f03c0 	ret

0000000000081b50 <enable_uart_interrupt>:
   81b50:	d2964200 	mov	x0, #0xb210                	// #45584
   81b54:	52a40001 	mov	w1, #0x20000000            	// #536870912
   81b58:	f2a7e000 	movk	x0, #0x3f00, lsl #16
   81b5c:	b9000001 	str	w1, [x0]
   81b60:	d65f03c0 	ret
   81b64:	d503201f 	nop

0000000000081b68 <disable_uart_interrupt>:
   81b68:	d2964380 	mov	x0, #0xb21c                	// #45596
   81b6c:	52a40001 	mov	w1, #0x20000000            	// #536870912
   81b70:	f2a7e000 	movk	x0, #0x3f00, lsl #16
   81b74:	b9000001 	str	w1, [x0]
   81b78:	d65f03c0 	ret
   81b7c:	d503201f 	nop

0000000000081b80 <enable_read_interrupt>:
   81b80:	d28a0880 	mov	x0, #0x5044                	// #20548
   81b84:	52800021 	mov	w1, #0x1                   	// #1
   81b88:	f2a7e420 	movk	x0, #0x3f21, lsl #16
   81b8c:	b9000001 	str	w1, [x0]
   81b90:	d65f03c0 	ret
   81b94:	d503201f 	nop

0000000000081b98 <disable_read_interrupt>:
   81b98:	d28a0880 	mov	x0, #0x5044                	// #20548
   81b9c:	f2a7e420 	movk	x0, #0x3f21, lsl #16
   81ba0:	b900001f 	str	wzr, [x0]
   81ba4:	d65f03c0 	ret

0000000000081ba8 <enable_write_interrupt>:
   81ba8:	d28a0881 	mov	x1, #0x5044                	// #20548
   81bac:	f2a7e421 	movk	x1, #0x3f21, lsl #16
   81bb0:	b9400020 	ldr	w0, [x1]
   81bb4:	321f0000 	orr	w0, w0, #0x2
   81bb8:	b9000020 	str	w0, [x1]
   81bbc:	d65f03c0 	ret

0000000000081bc0 <disable_write_interrupt>:
   81bc0:	d28a0881 	mov	x1, #0x5044                	// #20548
   81bc4:	f2a7e421 	movk	x1, #0x3f21, lsl #16
   81bc8:	b9400020 	ldr	w0, [x1]
   81bcc:	121e7800 	and	w0, w0, #0xfffffffd
   81bd0:	b9000020 	str	w0, [x1]
   81bd4:	d65f03c0 	ret

0000000000081bd8 <asyn_uart_get>:
   81bd8:	f0000004 	adrp	x4, 84000 <main+0xdd8>
   81bdc:	f0000002 	adrp	x2, 84000 <main+0xdd8>
   81be0:	d28a0880 	mov	x0, #0x5044                	// #20548
   81be4:	52800021 	mov	w1, #0x1                   	// #1
   81be8:	f2a7e420 	movk	x0, #0x3f21, lsl #16
   81bec:	f9426083 	ldr	x3, [x4, #1216]
   81bf0:	b9000001 	str	w1, [x0]
   81bf4:	f9427842 	ldr	x2, [x2, #1264]
   81bf8:	b9400060 	ldr	w0, [x3]
   81bfc:	b9400041 	ldr	w1, [x2]
   81c00:	6b01001f 	cmp	w0, w1
   81c04:	540000c1 	b.ne	81c1c <asyn_uart_get+0x44>  // b.any
   81c08:	d503201f 	nop
   81c0c:	b9400041 	ldr	w1, [x2]
   81c10:	b9400060 	ldr	w0, [x3]
   81c14:	6b01001f 	cmp	w0, w1
   81c18:	54ffff80 	b.eq	81c08 <asyn_uart_get+0x30>  // b.none
   81c1c:	f0000001 	adrp	x1, 84000 <main+0xdd8>
   81c20:	d28a0882 	mov	x2, #0x5044                	// #20548
   81c24:	f9426084 	ldr	x4, [x4, #1216]
   81c28:	710ffc1f 	cmp	w0, #0x3ff
   81c2c:	f9427c21 	ldr	x1, [x1, #1272]
   81c30:	f2a7e422 	movk	x2, #0x3f21, lsl #16
   81c34:	1a8007e3 	csinc	w3, wzr, w0, eq  // eq = none
   81c38:	b9000083 	str	w3, [x4]
   81c3c:	38604820 	ldrb	w0, [x1, w0, uxtw]
   81c40:	b900005f 	str	wzr, [x2]
   81c44:	d65f03c0 	ret

0000000000081c48 <asyn_uart_put>:
   81c48:	f0000001 	adrp	x1, 84000 <main+0xdd8>
   81c4c:	f0000002 	adrp	x2, 84000 <main+0xdd8>
   81c50:	d28a0884 	mov	x4, #0x5044                	// #20548
   81c54:	f9425821 	ldr	x1, [x1, #1200]
   81c58:	f2a7e424 	movk	x4, #0x3f21, lsl #16
   81c5c:	f9428442 	ldr	x2, [x2, #1288]
   81c60:	b9400025 	ldr	w5, [x1]
   81c64:	110004a3 	add	w3, w5, #0x1
   81c68:	12002463 	and	w3, w3, #0x3ff
   81c6c:	b9000023 	str	w3, [x1]
   81c70:	38254840 	strb	w0, [x2, w5, uxtw]
   81c74:	b9400080 	ldr	w0, [x4]
   81c78:	321f0000 	orr	w0, w0, #0x2
   81c7c:	b9000080 	str	w0, [x4]
   81c80:	d65f03c0 	ret
   81c84:	d503201f 	nop

0000000000081c88 <asyn_uart_puts>:
   81c88:	39400001 	ldrb	w1, [x0]
   81c8c:	f0000005 	adrp	x5, 84000 <main+0xdd8>
   81c90:	f0000007 	adrp	x7, 84000 <main+0xdd8>
   81c94:	340002e1 	cbz	w1, 81cf0 <asyn_uart_puts+0x68>
   81c98:	f94274a5 	ldr	x5, [x5, #1256]
   81c9c:	528001a8 	mov	w8, #0xd                   	// #13
   81ca0:	f94284e7 	ldr	x7, [x7, #1288]
   81ca4:	aa0503e3 	mov	x3, x5
   81ca8:	aa0703e6 	mov	x6, x7
   81cac:	d503201f 	nop
   81cb0:	b94000a2 	ldr	w2, [x5]
   81cb4:	7100283f 	cmp	w1, #0xa
   81cb8:	11000441 	add	w1, w2, #0x1
   81cbc:	540000a1 	b.ne	81cd0 <asyn_uart_puts+0x48>  // b.any
   81cc0:	11000844 	add	w4, w2, #0x2
   81cc4:	382248e8 	strb	w8, [x7, w2, uxtw]
   81cc8:	2a0103e2 	mov	w2, w1
   81ccc:	2a0403e1 	mov	w1, w4
   81cd0:	b9000061 	str	w1, [x3]
   81cd4:	7110003f 	cmp	w1, #0x400
   81cd8:	1a9f1021 	csel	w1, w1, wzr, ne  // ne = any
   81cdc:	39400004 	ldrb	w4, [x0]
   81ce0:	382248c4 	strb	w4, [x6, w2, uxtw]
   81ce4:	b9000061 	str	w1, [x3]
   81ce8:	38401c01 	ldrb	w1, [x0, #1]!
   81cec:	35fffe21 	cbnz	w1, 81cb0 <asyn_uart_puts+0x28>
   81cf0:	d28a0881 	mov	x1, #0x5044                	// #20548
   81cf4:	f2a7e421 	movk	x1, #0x3f21, lsl #16
   81cf8:	b9400020 	ldr	w0, [x1]
   81cfc:	321f0000 	orr	w0, w0, #0x2
   81d00:	b9000020 	str	w0, [x1]
   81d04:	d65f03c0 	ret

0000000000081d08 <uart_irq_handler>:
   81d08:	d2964381 	mov	x1, #0xb21c                	// #45596
   81d0c:	d28a0900 	mov	x0, #0x5048                	// #20552
   81d10:	f2a7e001 	movk	x1, #0x3f00, lsl #16
   81d14:	f2a7e420 	movk	x0, #0x3f21, lsl #16
   81d18:	52a40002 	mov	w2, #0x20000000            	// #536870912
   81d1c:	b9000022 	str	w2, [x1]
   81d20:	b9400001 	ldr	w1, [x0]
   81d24:	b9400000 	ldr	w0, [x0]
   81d28:	36100321 	tbz	w1, #2, 81d8c <uart_irq_handler+0x84>
   81d2c:	f0000001 	adrp	x1, 84000 <main+0xdd8>
   81d30:	f0000005 	adrp	x5, 84000 <main+0xdd8>
   81d34:	d28a0a86 	mov	x6, #0x5054                	// #20564
   81d38:	d28a0807 	mov	x7, #0x5040                	// #20544
   81d3c:	f9427821 	ldr	x1, [x1, #1264]
   81d40:	f2a7e426 	movk	x6, #0x3f21, lsl #16
   81d44:	f9427ca5 	ldr	x5, [x5, #1272]
   81d48:	f2a7e427 	movk	x7, #0x3f21, lsl #16
   81d4c:	14000008 	b	81d6c <uart_irq_handler+0x64>
   81d50:	b9400022 	ldr	w2, [x1]
   81d54:	b94000e4 	ldr	w4, [x7]
   81d58:	11000440 	add	w0, w2, #0x1
   81d5c:	7110001f 	cmp	w0, #0x400
   81d60:	1a831000 	csel	w0, w0, w3, ne  // ne = any
   81d64:	382248a4 	strb	w4, [x5, w2, uxtw]
   81d68:	b9000020 	str	w0, [x1]
   81d6c:	b94000c2 	ldr	w2, [x6]
   81d70:	52800003 	mov	w3, #0x0                   	// #0
   81d74:	3707fee2 	tbnz	w2, #0, 81d50 <uart_irq_handler+0x48>
   81d78:	d2964200 	mov	x0, #0xb210                	// #45584
   81d7c:	52a40001 	mov	w1, #0x20000000            	// #536870912
   81d80:	f2a7e000 	movk	x0, #0x3f00, lsl #16
   81d84:	b9000001 	str	w1, [x0]
   81d88:	d65f03c0 	ret
   81d8c:	360fff60 	tbz	w0, #1, 81d78 <uart_irq_handler+0x70>
   81d90:	f0000003 	adrp	x3, 84000 <main+0xdd8>
   81d94:	f0000004 	adrp	x4, 84000 <main+0xdd8>
   81d98:	f0000005 	adrp	x5, 84000 <main+0xdd8>
   81d9c:	f9425863 	ldr	x3, [x3, #1200]
   81da0:	f9427484 	ldr	x4, [x4, #1256]
   81da4:	b9400060 	ldr	w0, [x3]
   81da8:	b9400081 	ldr	w1, [x4]
   81dac:	6b01001f 	cmp	w0, w1
   81db0:	54000280 	b.eq	81e00 <uart_irq_handler+0xf8>  // b.none
   81db4:	f94284a5 	ldr	x5, [x5, #1288]
   81db8:	d28a0a81 	mov	x1, #0x5054                	// #20564
   81dbc:	d28a0806 	mov	x6, #0x5040                	// #20544
   81dc0:	aa0303e7 	mov	x7, x3
   81dc4:	f2a7e421 	movk	x1, #0x3f21, lsl #16
   81dc8:	f2a7e426 	movk	x6, #0x3f21, lsl #16
   81dcc:	d503201f 	nop
   81dd0:	386048a2 	ldrb	w2, [x5, w0, uxtw]
   81dd4:	11000400 	add	w0, w0, #0x1
   81dd8:	b9000060 	str	w0, [x3]
   81ddc:	d503201f 	nop
   81de0:	d503201f 	nop
   81de4:	b9400020 	ldr	w0, [x1]
   81de8:	362fffc0 	tbz	w0, #5, 81de0 <uart_irq_handler+0xd8>
   81dec:	b90000c2 	str	w2, [x6]
   81df0:	b9400082 	ldr	w2, [x4]
   81df4:	b94000e0 	ldr	w0, [x7]
   81df8:	6b02001f 	cmp	w0, w2
   81dfc:	54fffea1 	b.ne	81dd0 <uart_irq_handler+0xc8>  // b.any
   81e00:	d28a0881 	mov	x1, #0x5044                	// #20548
   81e04:	f2a7e421 	movk	x1, #0x3f21, lsl #16
   81e08:	b9400020 	ldr	w0, [x1]
   81e0c:	121e7800 	and	w0, w0, #0xfffffffd
   81e10:	b9000020 	str	w0, [x1]
   81e14:	d2964200 	mov	x0, #0xb210                	// #45584
   81e18:	52a40001 	mov	w1, #0x20000000            	// #536870912
   81e1c:	f2a7e000 	movk	x0, #0x3f00, lsl #16
   81e20:	b9000001 	str	w1, [x0]
   81e24:	d65f03c0 	ret

0000000000081e28 <async_uart_getc>:
   81e28:	17ffff6c 	b	81bd8 <asyn_uart_get>
   81e2c:	00000000 	.inst	0x00000000 ; undefined

0000000000081e30 <set>:
   81e30:	b9000001 	str	w1, [x0]
   81e34:	d65f03c0 	ret

0000000000081e38 <reboot>:
   81e38:	d2800382 	mov	x2, #0x1c                  	// #28
   81e3c:	d2800481 	mov	x1, #0x24                  	// #36
   81e40:	f2a7e202 	movk	x2, #0x3f10, lsl #16
   81e44:	f2a7e201 	movk	x1, #0x3f10, lsl #16
   81e48:	52800403 	mov	w3, #0x20                  	// #32
   81e4c:	72ab4003 	movk	w3, #0x5a00, lsl #16
   81e50:	b9000043 	str	w3, [x2]
   81e54:	52ab4002 	mov	w2, #0x5a000000            	// #1509949440
   81e58:	2a020000 	orr	w0, w0, w2
   81e5c:	b9000020 	str	w0, [x1]
   81e60:	d65f03c0 	ret
   81e64:	d503201f 	nop

0000000000081e68 <cancel_reboot>:
   81e68:	d2800382 	mov	x2, #0x1c                  	// #28
   81e6c:	d2800481 	mov	x1, #0x24                  	// #36
   81e70:	f2a7e202 	movk	x2, #0x3f10, lsl #16
   81e74:	f2a7e201 	movk	x1, #0x3f10, lsl #16
   81e78:	52ab4000 	mov	w0, #0x5a000000            	// #1509949440
   81e7c:	b9000040 	str	w0, [x2]
   81e80:	b9000020 	str	w0, [x1]
   81e84:	d65f03c0 	ret

0000000000081e88 <mbox_call>:
   81e88:	f0000004 	adrp	x4, 84000 <main+0xdd8>
   81e8c:	12000c00 	and	w0, w0, #0xf
   81e90:	d2971301 	mov	x1, #0xb898                	// #47256
   81e94:	f9425c82 	ldr	x2, [x4, #1208]
   81e98:	f2a7e001 	movk	x1, #0x3f00, lsl #16
   81e9c:	2a020002 	orr	w2, w0, w2
   81ea0:	d503201f 	nop
   81ea4:	b9400020 	ldr	w0, [x1]
   81ea8:	37ffffc0 	tbnz	w0, #31, 81ea0 <mbox_call+0x18>
   81eac:	d2971400 	mov	x0, #0xb8a0                	// #47264
   81eb0:	d2971301 	mov	x1, #0xb898                	// #47256
   81eb4:	f2a7e000 	movk	x0, #0x3f00, lsl #16
   81eb8:	d2971003 	mov	x3, #0xb880                	// #47232
   81ebc:	f2a7e001 	movk	x1, #0x3f00, lsl #16
   81ec0:	f2a7e003 	movk	x3, #0x3f00, lsl #16
   81ec4:	b9000002 	str	w2, [x0]
   81ec8:	d503201f 	nop
   81ecc:	b9400020 	ldr	w0, [x1]
   81ed0:	37f7ffc0 	tbnz	w0, #30, 81ec8 <mbox_call+0x40>
   81ed4:	b9400060 	ldr	w0, [x3]
   81ed8:	6b02001f 	cmp	w0, w2
   81edc:	54ffff61 	b.ne	81ec8 <mbox_call+0x40>  // b.any
   81ee0:	f9425c84 	ldr	x4, [x4, #1208]
   81ee4:	52b00000 	mov	w0, #0x80000000            	// #-2147483648
   81ee8:	b9400481 	ldr	w1, [x4, #4]
   81eec:	6b00003f 	cmp	w1, w0
   81ef0:	1a9f17e0 	cset	w0, eq  // eq = none
   81ef4:	d65f03c0 	ret

0000000000081ef8 <get_board_revision>:
   81ef8:	f0000005 	adrp	x5, 84000 <main+0xdd8>
   81efc:	52800387 	mov	w7, #0x1c                  	// #28
   81f00:	52800046 	mov	w6, #0x2                   	// #2
   81f04:	52800084 	mov	w4, #0x4                   	// #4
   81f08:	f9425ca1 	ldr	x1, [x5, #1208]
   81f0c:	72a00026 	movk	w6, #0x1, lsl #16
   81f10:	d2971302 	mov	x2, #0xb898                	// #47256
   81f14:	321d0023 	orr	w3, w1, #0x8
   81f18:	f2a7e002 	movk	x2, #0x3f00, lsl #16
   81f1c:	b9000027 	str	w7, [x1]
   81f20:	b900043f 	str	wzr, [x1, #4]
   81f24:	b9000826 	str	w6, [x1, #8]
   81f28:	b9000c24 	str	w4, [x1, #12]
   81f2c:	b900103f 	str	wzr, [x1, #16]
   81f30:	b900143f 	str	wzr, [x1, #20]
   81f34:	b900183f 	str	wzr, [x1, #24]
   81f38:	d503201f 	nop
   81f3c:	b9400041 	ldr	w1, [x2]
   81f40:	37ffffc1 	tbnz	w1, #31, 81f38 <get_board_revision+0x40>
   81f44:	d2971401 	mov	x1, #0xb8a0                	// #47264
   81f48:	d2971302 	mov	x2, #0xb898                	// #47256
   81f4c:	f2a7e001 	movk	x1, #0x3f00, lsl #16
   81f50:	d2971004 	mov	x4, #0xb880                	// #47232
   81f54:	f2a7e002 	movk	x2, #0x3f00, lsl #16
   81f58:	f2a7e004 	movk	x4, #0x3f00, lsl #16
   81f5c:	b9000023 	str	w3, [x1]
   81f60:	d503201f 	nop
   81f64:	b9400041 	ldr	w1, [x2]
   81f68:	37f7ffc1 	tbnz	w1, #30, 81f60 <get_board_revision+0x68>
   81f6c:	b9400081 	ldr	w1, [x4]
   81f70:	6b01007f 	cmp	w3, w1
   81f74:	54ffff61 	b.ne	81f60 <get_board_revision+0x68>  // b.any
   81f78:	f9425ca5 	ldr	x5, [x5, #1208]
   81f7c:	b94004a1 	ldr	w1, [x5, #4]
   81f80:	b94014a1 	ldr	w1, [x5, #20]
   81f84:	b9000001 	str	w1, [x0]
   81f88:	d65f03c0 	ret
   81f8c:	d503201f 	nop

0000000000081f90 <get_arm_memory>:
   81f90:	f0000006 	adrp	x6, 84000 <main+0xdd8>
   81f94:	52800403 	mov	w3, #0x20                  	// #32
   81f98:	528000a7 	mov	w7, #0x5                   	// #5
   81f9c:	52800105 	mov	w5, #0x8                   	// #8
   81fa0:	f9425cc2 	ldr	x2, [x6, #1208]
   81fa4:	72a00027 	movk	w7, #0x1, lsl #16
   81fa8:	2a050044 	orr	w4, w2, w5
   81fac:	b9000043 	str	w3, [x2]
   81fb0:	d2971303 	mov	x3, #0xb898                	// #47256
   81fb4:	b900045f 	str	wzr, [x2, #4]
   81fb8:	f2a7e003 	movk	x3, #0x3f00, lsl #16
   81fbc:	b9000847 	str	w7, [x2, #8]
   81fc0:	b9000c45 	str	w5, [x2, #12]
   81fc4:	b900105f 	str	wzr, [x2, #16]
   81fc8:	b900145f 	str	wzr, [x2, #20]
   81fcc:	b900185f 	str	wzr, [x2, #24]
   81fd0:	b9001c5f 	str	wzr, [x2, #28]
   81fd4:	d503201f 	nop
   81fd8:	d503201f 	nop
   81fdc:	b9400062 	ldr	w2, [x3]
   81fe0:	37ffffc2 	tbnz	w2, #31, 81fd8 <get_arm_memory+0x48>
   81fe4:	d2971402 	mov	x2, #0xb8a0                	// #47264
   81fe8:	d2971303 	mov	x3, #0xb898                	// #47256
   81fec:	f2a7e002 	movk	x2, #0x3f00, lsl #16
   81ff0:	d2971005 	mov	x5, #0xb880                	// #47232
   81ff4:	f2a7e003 	movk	x3, #0x3f00, lsl #16
   81ff8:	f2a7e005 	movk	x5, #0x3f00, lsl #16
   81ffc:	b9000044 	str	w4, [x2]
   82000:	d503201f 	nop
   82004:	b9400062 	ldr	w2, [x3]
   82008:	37f7ffc2 	tbnz	w2, #30, 82000 <get_arm_memory+0x70>
   8200c:	b94000a2 	ldr	w2, [x5]
   82010:	6b02009f 	cmp	w4, w2
   82014:	54ffff61 	b.ne	82000 <get_arm_memory+0x70>  // b.any
   82018:	f9425cc2 	ldr	x2, [x6, #1208]
   8201c:	b9400443 	ldr	w3, [x2, #4]
   82020:	b9401443 	ldr	w3, [x2, #20]
   82024:	b9000003 	str	w3, [x0]
   82028:	b9401840 	ldr	w0, [x2, #24]
   8202c:	b9000020 	str	w0, [x1]
   82030:	d65f03c0 	ret
   82034:	00000000 	.inst	0x00000000 ; undefined

0000000000082038 <cpio_header_parser>:
   82038:	a9bb7bfd 	stp	x29, x30, [sp, #-80]!
   8203c:	910003fd 	mov	x29, sp
   82040:	a90153f3 	stp	x19, x20, [sp, #16]
   82044:	aa0003f4 	mov	x20, x0
   82048:	12800013 	mov	w19, #0xffffffff            	// #-1
   8204c:	a9025bf5 	stp	x21, x22, [sp, #32]
   82050:	aa0103f6 	mov	x22, x1
   82054:	aa0203f5 	mov	x21, x2
   82058:	b0000001 	adrp	x1, 83000 <print_buddy_info+0xa0>
   8205c:	528000c2 	mov	w2, #0x6                   	// #6
   82060:	9119c021 	add	x1, x1, #0x670
   82064:	a90363f7 	stp	x23, x24, [sp, #48]
   82068:	aa0303f8 	mov	x24, x3
   8206c:	aa0403f7 	mov	x23, x4
   82070:	97fffd5a 	bl	815d8 <strncmp>
   82074:	340000e0 	cbz	w0, 82090 <cpio_header_parser+0x58>
   82078:	2a1303e0 	mov	w0, w19
   8207c:	a94153f3 	ldp	x19, x20, [sp, #16]
   82080:	a9425bf5 	ldp	x21, x22, [sp, #32]
   82084:	a94363f7 	ldp	x23, x24, [sp, #48]
   82088:	a8c57bfd 	ldp	x29, x30, [sp], #80
   8208c:	d65f03c0 	ret
   82090:	52800101 	mov	w1, #0x8                   	// #8
   82094:	2a0003f3 	mov	w19, w0
   82098:	9100da80 	add	x0, x20, #0x36
   8209c:	f90023f9 	str	x25, [sp, #64]
   820a0:	97fffd60 	bl	81620 <hexStr2int>
   820a4:	f90002a0 	str	x0, [x21]
   820a8:	9101ba99 	add	x25, x20, #0x6e
   820ac:	f90002d9 	str	x25, [x22]
   820b0:	b0000001 	adrp	x1, 83000 <print_buddy_info+0xa0>
   820b4:	aa1903e0 	mov	x0, x25
   820b8:	9119e021 	add	x1, x1, #0x678
   820bc:	52800162 	mov	w2, #0xb                   	// #11
   820c0:	97fffd46 	bl	815d8 <strncmp>
   820c4:	34000240 	cbz	w0, 8210c <cpio_header_parser+0xd4>
   820c8:	52800101 	mov	w1, #0x8                   	// #8
   820cc:	91017a80 	add	x0, x20, #0x5e
   820d0:	97fffd54 	bl	81620 <hexStr2int>
   820d4:	8b000320 	add	x0, x25, x0
   820d8:	94000090 	bl	82318 <align_by_4>
   820dc:	f94002a1 	ldr	x1, [x21]
   820e0:	f9000300 	str	x0, [x24]
   820e4:	8b010000 	add	x0, x0, x1
   820e8:	9400008c 	bl	82318 <align_by_4>
   820ec:	f94023f9 	ldr	x25, [sp, #64]
   820f0:	f90002e0 	str	x0, [x23]
   820f4:	2a1303e0 	mov	w0, w19
   820f8:	a94153f3 	ldp	x19, x20, [sp, #16]
   820fc:	a9425bf5 	ldp	x21, x22, [sp, #32]
   82100:	a94363f7 	ldp	x23, x24, [sp, #48]
   82104:	a8c57bfd 	ldp	x29, x30, [sp], #80
   82108:	d65f03c0 	ret
   8210c:	52800033 	mov	w19, #0x1                   	// #1
   82110:	2a1303e0 	mov	w0, w19
   82114:	a94153f3 	ldp	x19, x20, [sp, #16]
   82118:	a9425bf5 	ldp	x21, x22, [sp, #32]
   8211c:	a94363f7 	ldp	x23, x24, [sp, #48]
   82120:	f94023f9 	ldr	x25, [sp, #64]
   82124:	a8c57bfd 	ldp	x29, x30, [sp], #80
   82128:	d65f03c0 	ret
   8212c:	d503201f 	nop

0000000000082130 <cpio_ls>:
   82130:	a9ba7bfd 	stp	x29, x30, [sp, #-96]!
   82134:	910003fd 	mov	x29, sp
   82138:	a90153f3 	stp	x19, x20, [sp, #16]
   8213c:	b0000013 	adrp	x19, 83000 <print_buddy_info+0xa0>
   82140:	910103f4 	add	x20, sp, #0x40
   82144:	9117e273 	add	x19, x19, #0x5f8
   82148:	a9025bf5 	stp	x21, x22, [sp, #32]
   8214c:	910143f6 	add	x22, sp, #0x50
   82150:	910123f5 	add	x21, sp, #0x48
   82154:	f9001bf7 	str	x23, [sp, #48]
   82158:	910163f7 	add	x23, sp, #0x58
   8215c:	14000006 	b	82174 <cpio_ls+0x44>
   82160:	f94023e0 	ldr	x0, [sp, #64]
   82164:	97fffe19 	bl	819c8 <uart_puts>
   82168:	aa1303e0 	mov	x0, x19
   8216c:	97fffe17 	bl	819c8 <uart_puts>
   82170:	f9402fe0 	ldr	x0, [sp, #88]
   82174:	aa1703e4 	mov	x4, x23
   82178:	aa1603e3 	mov	x3, x22
   8217c:	aa1503e2 	mov	x2, x21
   82180:	aa1403e1 	mov	x1, x20
   82184:	97ffffad 	bl	82038 <cpio_header_parser>
   82188:	34fffec0 	cbz	w0, 82160 <cpio_ls+0x30>
   8218c:	a94153f3 	ldp	x19, x20, [sp, #16]
   82190:	a9425bf5 	ldp	x21, x22, [sp, #32]
   82194:	f9401bf7 	ldr	x23, [sp, #48]
   82198:	a8c67bfd 	ldp	x29, x30, [sp], #96
   8219c:	d65f03c0 	ret

00000000000821a0 <cpio_cat>:
   821a0:	a9ba7bfd 	stp	x29, x30, [sp, #-96]!
   821a4:	910003fd 	mov	x29, sp
   821a8:	a90153f3 	stp	x19, x20, [sp, #16]
   821ac:	aa0103f3 	mov	x19, x1
   821b0:	910103f4 	add	x20, sp, #0x40
   821b4:	a9025bf5 	stp	x21, x22, [sp, #32]
   821b8:	910143f6 	add	x22, sp, #0x50
   821bc:	910123f5 	add	x21, sp, #0x48
   821c0:	f9001bf7 	str	x23, [sp, #48]
   821c4:	910163f7 	add	x23, sp, #0x58
   821c8:	14000006 	b	821e0 <cpio_cat+0x40>
   821cc:	f94023e0 	ldr	x0, [sp, #64]
   821d0:	aa1303e1 	mov	x1, x19
   821d4:	97fffcef 	bl	81590 <strcmp>
   821d8:	34000200 	cbz	w0, 82218 <cpio_cat+0x78>
   821dc:	f9402fe0 	ldr	x0, [sp, #88]
   821e0:	aa1703e4 	mov	x4, x23
   821e4:	aa1603e3 	mov	x3, x22
   821e8:	aa1503e2 	mov	x2, x21
   821ec:	aa1403e1 	mov	x1, x20
   821f0:	97ffff92 	bl	82038 <cpio_header_parser>
   821f4:	34fffec0 	cbz	w0, 821cc <cpio_cat+0x2c>
   821f8:	b0000000 	adrp	x0, 83000 <print_buddy_info+0xa0>
   821fc:	911a2000 	add	x0, x0, #0x688
   82200:	97fffdf2 	bl	819c8 <uart_puts>
   82204:	a94153f3 	ldp	x19, x20, [sp, #16]
   82208:	a9425bf5 	ldp	x21, x22, [sp, #32]
   8220c:	f9401bf7 	ldr	x23, [sp, #48]
   82210:	a8c67bfd 	ldp	x29, x30, [sp], #96
   82214:	d65f03c0 	ret
   82218:	f94027e0 	ldr	x0, [sp, #72]
   8221c:	d2800013 	mov	x19, #0x0                   	// #0
   82220:	b50000a0 	cbnz	x0, 82234 <cpio_cat+0x94>
   82224:	17fffff8 	b	82204 <cpio_cat+0x64>
   82228:	f94027e0 	ldr	x0, [sp, #72]
   8222c:	eb13001f 	cmp	x0, x19
   82230:	54fffea9 	b.ls	82204 <cpio_cat+0x64>  // b.plast
   82234:	f9402be0 	ldr	x0, [sp, #80]
   82238:	38736800 	ldrb	w0, [x0, x19]
   8223c:	97fffd9f 	bl	818b8 <uart_send>
   82240:	f9402be0 	ldr	x0, [sp, #80]
   82244:	38736800 	ldrb	w0, [x0, x19]
   82248:	91000673 	add	x19, x19, #0x1
   8224c:	7100281f 	cmp	w0, #0xa
   82250:	54fffec1 	b.ne	82228 <cpio_cat+0x88>  // b.any
   82254:	528001a0 	mov	w0, #0xd                   	// #13
   82258:	97fffd98 	bl	818b8 <uart_send>
   8225c:	17fffff3 	b	82228 <cpio_cat+0x88>

0000000000082260 <cpio_load>:
   82260:	a9ba7bfd 	stp	x29, x30, [sp, #-96]!
   82264:	910003fd 	mov	x29, sp
   82268:	a90153f3 	stp	x19, x20, [sp, #16]
   8226c:	aa0103f3 	mov	x19, x1
   82270:	910103f4 	add	x20, sp, #0x40
   82274:	a9025bf5 	stp	x21, x22, [sp, #32]
   82278:	910143f6 	add	x22, sp, #0x50
   8227c:	910123f5 	add	x21, sp, #0x48
   82280:	f9001bf7 	str	x23, [sp, #48]
   82284:	910163f7 	add	x23, sp, #0x58
   82288:	14000006 	b	822a0 <cpio_load+0x40>
   8228c:	f94023e1 	ldr	x1, [sp, #64]
   82290:	aa1303e0 	mov	x0, x19
   82294:	97fffcbf 	bl	81590 <strcmp>
   82298:	340001c0 	cbz	w0, 822d0 <cpio_load+0x70>
   8229c:	f9402fe0 	ldr	x0, [sp, #88]
   822a0:	aa1703e4 	mov	x4, x23
   822a4:	aa1603e3 	mov	x3, x22
   822a8:	aa1503e2 	mov	x2, x21
   822ac:	aa1403e1 	mov	x1, x20
   822b0:	97ffff62 	bl	82038 <cpio_header_parser>
   822b4:	34fffec0 	cbz	w0, 8228c <cpio_load+0x2c>
   822b8:	d2800000 	mov	x0, #0x0                   	// #0
   822bc:	a94153f3 	ldp	x19, x20, [sp, #16]
   822c0:	a9425bf5 	ldp	x21, x22, [sp, #32]
   822c4:	f9401bf7 	ldr	x23, [sp, #48]
   822c8:	a8c67bfd 	ldp	x29, x30, [sp], #96
   822cc:	d65f03c0 	ret
   822d0:	f94027e0 	ldr	x0, [sp, #72]
   822d4:	9400001d 	bl	82348 <malloc>
   822d8:	f94027e1 	ldr	x1, [sp, #72]
   822dc:	b4ffff01 	cbz	x1, 822bc <cpio_load+0x5c>
   822e0:	d2800001 	mov	x1, #0x0                   	// #0
   822e4:	d503201f 	nop
   822e8:	f9402be2 	ldr	x2, [sp, #80]
   822ec:	38616842 	ldrb	w2, [x2, x1]
   822f0:	38216802 	strb	w2, [x0, x1]
   822f4:	91000421 	add	x1, x1, #0x1
   822f8:	f94027e2 	ldr	x2, [sp, #72]
   822fc:	eb01005f 	cmp	x2, x1
   82300:	54ffff48 	b.hi	822e8 <cpio_load+0x88>  // b.pmore
   82304:	a94153f3 	ldp	x19, x20, [sp, #16]
   82308:	a9425bf5 	ldp	x21, x22, [sp, #32]
   8230c:	f9401bf7 	ldr	x23, [sp, #48]
   82310:	a8c67bfd 	ldp	x29, x30, [sp], #96
   82314:	d65f03c0 	ret

0000000000082318 <align_by_4>:
   82318:	927ef401 	and	x1, x0, #0xfffffffffffffffc
   8231c:	f240041f 	tst	x0, #0x3
   82320:	91001020 	add	x0, x1, #0x4
   82324:	9a811000 	csel	x0, x0, x1, ne  // ne = any
   82328:	d65f03c0 	ret
   8232c:	00000000 	.inst	0x00000000 ; undefined

0000000000082330 <heap_align>:
   82330:	927ef401 	and	x1, x0, #0xfffffffffffffffc
   82334:	f240041f 	tst	x0, #0x3
   82338:	91001020 	add	x0, x1, #0x4
   8233c:	9a811000 	csel	x0, x0, x1, ne  // ne = any
   82340:	d65f03c0 	ret
   82344:	d503201f 	nop

0000000000082348 <malloc>:
   82348:	d0000003 	adrp	x3, 84000 <main+0xdd8>
   8234c:	91126062 	add	x2, x3, #0x498
   82350:	aa0003e1 	mov	x1, x0
   82354:	f9424c60 	ldr	x0, [x3, #1176]
   82358:	f9400444 	ldr	x4, [x2, #8]
   8235c:	eb04001f 	cmp	x0, x4
   82360:	54000100 	b.eq	82380 <malloc+0x38>  // b.none
   82364:	8b010001 	add	x1, x0, x1
   82368:	927ef422 	and	x2, x1, #0xfffffffffffffffc
   8236c:	f240043f 	tst	x1, #0x3
   82370:	91001041 	add	x1, x2, #0x4
   82374:	9a821022 	csel	x2, x1, x2, ne  // ne = any
   82378:	f9024c62 	str	x2, [x3, #1176]
   8237c:	d65f03c0 	ret
   82380:	d0000000 	adrp	x0, 84000 <main+0xdd8>
   82384:	9114a004 	add	x4, x0, #0x528
   82388:	f9429400 	ldr	x0, [x0, #1320]
   8238c:	f9400484 	ldr	x4, [x4, #8]
   82390:	8b010001 	add	x1, x0, x1
   82394:	8b040004 	add	x4, x0, x4
   82398:	f240043f 	tst	x1, #0x3
   8239c:	927c6c84 	and	x4, x4, #0xfffffff0
   823a0:	f9000444 	str	x4, [x2, #8]
   823a4:	927ef422 	and	x2, x1, #0xfffffffffffffffc
   823a8:	f9000004 	str	x4, [x0]
   823ac:	91001041 	add	x1, x2, #0x4
   823b0:	9a821022 	csel	x2, x1, x2, ne  // ne = any
   823b4:	f9024c62 	str	x2, [x3, #1176]
   823b8:	d65f03c0 	ret
   823bc:	00000000 	.inst	0x00000000 ; undefined

00000000000823c0 <syn_handler>:
   823c0:	a9bd7bfd 	stp	x29, x30, [sp, #-48]!
   823c4:	910003fd 	mov	x29, sp
   823c8:	a90153f3 	stp	x19, x20, [sp, #16]
   823cc:	f90013f5 	str	x21, [sp, #32]
   823d0:	d5385213 	mrs	x19, esr_el1
   823d4:	d5384035 	mrs	x21, elr_el1
   823d8:	d5384014 	mrs	x20, spsr_el1
   823dc:	b0000000 	adrp	x0, 83000 <print_buddy_info+0xa0>
   823e0:	911a6000 	add	x0, x0, #0x698
   823e4:	97fffd79 	bl	819c8 <uart_puts>
   823e8:	2a1303e0 	mov	w0, w19
   823ec:	b0000013 	adrp	x19, 83000 <print_buddy_info+0xa0>
   823f0:	97fffd8e 	bl	81a28 <uart_hex>
   823f4:	9123c273 	add	x19, x19, #0x8f0
   823f8:	aa1303e0 	mov	x0, x19
   823fc:	97fffd73 	bl	819c8 <uart_puts>
   82400:	b0000000 	adrp	x0, 83000 <print_buddy_info+0xa0>
   82404:	911aa000 	add	x0, x0, #0x6a8
   82408:	97fffd70 	bl	819c8 <uart_puts>
   8240c:	2a1503e0 	mov	w0, w21
   82410:	97fffd86 	bl	81a28 <uart_hex>
   82414:	aa1303e0 	mov	x0, x19
   82418:	97fffd6c 	bl	819c8 <uart_puts>
   8241c:	b0000000 	adrp	x0, 83000 <print_buddy_info+0xa0>
   82420:	911ae000 	add	x0, x0, #0x6b8
   82424:	97fffd69 	bl	819c8 <uart_puts>
   82428:	2a1403e0 	mov	w0, w20
   8242c:	97fffd7f 	bl	81a28 <uart_hex>
   82430:	aa1303e0 	mov	x0, x19
   82434:	97fffd65 	bl	819c8 <uart_puts>
   82438:	a94153f3 	ldp	x19, x20, [sp, #16]
   8243c:	b0000000 	adrp	x0, 83000 <print_buddy_info+0xa0>
   82440:	f94013f5 	ldr	x21, [sp, #32]
   82444:	911b2000 	add	x0, x0, #0x6c8
   82448:	a8c37bfd 	ldp	x29, x30, [sp], #48
   8244c:	17fffd5f 	b	819c8 <uart_puts>

0000000000082450 <timer_irq_handler>:
   82450:	a9be7bfd 	stp	x29, x30, [sp, #-32]!
   82454:	910003fd 	mov	x29, sp
   82458:	f9000bf3 	str	x19, [sp, #16]
   8245c:	d53be002 	mrs	x2, cntfrq_el0
   82460:	52800040 	mov	w0, #0x2                   	// #2
   82464:	9b007c41 	mul	x1, x2, x0
   82468:	d51be201 	msr	cntp_tval_el0, x1
   8246c:	9400002d 	bl	82520 <get_time>
   82470:	aa0003f3 	mov	x19, x0
   82474:	b0000000 	adrp	x0, 83000 <print_buddy_info+0xa0>
   82478:	911ba000 	add	x0, x0, #0x6e8
   8247c:	97fffd53 	bl	819c8 <uart_puts>
   82480:	2a1303e0 	mov	w0, w19
   82484:	97fffd69 	bl	81a28 <uart_hex>
   82488:	f9400bf3 	ldr	x19, [sp, #16]
   8248c:	b0000000 	adrp	x0, 83000 <print_buddy_info+0xa0>
   82490:	a8c27bfd 	ldp	x29, x30, [sp], #32
   82494:	911be000 	add	x0, x0, #0x6f8
   82498:	17fffd4c 	b	819c8 <uart_puts>
   8249c:	d503201f 	nop

00000000000824a0 <irq_handler>:
   824a0:	d2800c00 	mov	x0, #0x60                  	// #96
   824a4:	d2964081 	mov	x1, #0xb204                	// #45572
   824a8:	f2a80000 	movk	x0, #0x4000, lsl #16
   824ac:	f2a7e001 	movk	x1, #0x3f00, lsl #16
   824b0:	b9400000 	ldr	w0, [x0]
   824b4:	b9400021 	ldr	w1, [x1]
   824b8:	37080080 	tbnz	w0, #1, 824c8 <irq_handler+0x28>
   824bc:	37e80041 	tbnz	w1, #29, 824c4 <irq_handler+0x24>
   824c0:	d65f03c0 	ret
   824c4:	17fffe11 	b	81d08 <uart_irq_handler>
   824c8:	17ffffe2 	b	82450 <timer_irq_handler>
   824cc:	d503201f 	nop

00000000000824d0 <undefined_handler>:
   824d0:	d65f03c0 	ret
   824d4:	d503201f 	nop

00000000000824d8 <enable_interrupt>:
   824d8:	d5034fff 	msr	daifclr, #0xf
   824dc:	d65f03c0 	ret

00000000000824e0 <disable_interrupt>:
   824e0:	d5034fdf 	msr	daifset, #0xf
   824e4:	d65f03c0 	ret

00000000000824e8 <set_next_timeout>:
   824e8:	d53be002 	mrs	x2, cntfrq_el0
   824ec:	9b007c41 	mul	x1, x2, x0
   824f0:	d51be201 	msr	cntp_tval_el0, x1
   824f4:	d65f03c0 	ret

00000000000824f8 <core_timer_enable>:
   824f8:	d2800020 	mov	x0, #0x1                   	// #1
   824fc:	d51be220 	msr	cntp_ctl_el0, x0
   82500:	d53be000 	mrs	x0, cntfrq_el0
   82504:	d37ff800 	lsl	x0, x0, #1
   82508:	d51be200 	msr	cntp_tval_el0, x0
   8250c:	d2800040 	mov	x0, #0x2                   	// #2
   82510:	58000101 	ldr	x1, 82530 <get_time+0x10>
   82514:	b9000020 	str	w0, [x1]
   82518:	d65f03c0 	ret
   8251c:	d503201f 	nop

0000000000082520 <get_time>:
   82520:	d53be021 	mrs	x1, cntpct_el0
   82524:	d53be000 	mrs	x0, cntfrq_el0
   82528:	9ac00820 	udiv	x0, x1, x0
   8252c:	d65f03c0 	ret
   82530:	40000040 	.word	0x40000040
   82534:	00000000 	.word	0x00000000

0000000000082538 <page_alloc.part.0>:
   82538:	a9b97bfd 	stp	x29, x30, [sp, #-112]!
   8253c:	7100241f 	cmp	w0, #0x9
   82540:	910003fd 	mov	x29, sp
   82544:	a9046bf9 	stp	x25, x26, [sp, #64]
   82548:	54000c0c 	b.gt	826c8 <page_alloc.part.0+0x190>
   8254c:	a90573fb 	stp	x27, x28, [sp, #80]
   82550:	d000001b 	adrp	x27, 84000 <main+0xdd8>
   82554:	2a0003fc 	mov	w28, w0
   82558:	a90153f3 	stp	x19, x20, [sp, #16]
   8255c:	2a0003f4 	mov	w20, w0
   82560:	f9426760 	ldr	x0, [x27, #1224]
   82564:	8b34d000 	add	x0, x0, w20, sxtw #4
   82568:	f940001a 	ldr	x26, [x0]
   8256c:	eb00035f 	cmp	x26, x0
   82570:	54000a00 	b.eq	826b0 <page_alloc.part.0+0x178>  // b.none
   82574:	a9400740 	ldp	x0, x1, [x26]
   82578:	a9025bf5 	stp	x21, x22, [sp, #32]
   8257c:	52800035 	mov	w21, #0x1                   	// #1
   82580:	a90363f7 	stp	x23, x24, [sp, #48]
   82584:	6b1c029f 	cmp	w20, w28
   82588:	f9000020 	str	x0, [x1]
   8258c:	f9000401 	str	x1, [x0, #8]
   82590:	b9001354 	str	w20, [x26, #16]
   82594:	b9003355 	str	w21, [x26, #48]
   82598:	54000a2a 	b.ge	826dc <page_alloc.part.0+0x1a4>  // b.tcont
   8259c:	f9426760 	ldr	x0, [x27, #1224]
   825a0:	d0000003 	adrp	x3, 84000 <main+0xdd8>
   825a4:	93407f9b 	sxtw	x27, w28
   825a8:	b90067f5 	str	w21, [sp, #100]
   825ac:	d100077b 	sub	x27, x27, #0x1
   825b0:	b0000017 	adrp	x23, 83000 <print_buddy_info+0xa0>
   825b4:	f9426c75 	ldr	x21, [x3, #1240]
   825b8:	8b1b101b 	add	x27, x0, x27, lsl #4
   825bc:	b0000016 	adrp	x22, 83000 <print_buddy_info+0xa0>
   825c0:	b0000000 	adrp	x0, 83000 <print_buddy_info+0xa0>
   825c4:	911c02f7 	add	x23, x23, #0x700
   825c8:	911c6019 	add	x25, x0, #0x718
   825cc:	911c82d6 	add	x22, x22, #0x720
   825d0:	b0000018 	adrp	x24, 83000 <print_buddy_info+0xa0>
   825d4:	f90037e0 	str	x0, [sp, #104]
   825d8:	b94067e1 	ldr	w1, [sp, #100]
   825dc:	5100079c 	sub	w28, w28, #0x1
   825e0:	b9402f40 	ldr	w0, [x26, #44]
   825e4:	f9400762 	ldr	x2, [x27, #8]
   825e8:	1adc2021 	lsl	w1, w1, w28
   825ec:	4a000021 	eor	w1, w1, w0
   825f0:	aa1703e0 	mov	x0, x23
   825f4:	937a7c21 	sbfiz	x1, x1, #6, #32
   825f8:	8b0102b3 	add	x19, x21, x1
   825fc:	f9000773 	str	x19, [x27, #8]
   82600:	f8216abb 	str	x27, [x21, x1]
   82604:	d100437b 	sub	x27, x27, #0x10
   82608:	f9000662 	str	x2, [x19, #8]
   8260c:	b900127c 	str	w28, [x19, #16]
   82610:	f9000053 	str	x19, [x2]
   82614:	97fffced 	bl	819c8 <uart_puts>
   82618:	b9402e60 	ldr	w0, [x19, #44]
   8261c:	97fffd03 	bl	81a28 <uart_hex>
   82620:	aa1903e0 	mov	x0, x25
   82624:	97fffce9 	bl	819c8 <uart_puts>
   82628:	aa1603e0 	mov	x0, x22
   8262c:	97fffce7 	bl	819c8 <uart_puts>
   82630:	b9401260 	ldr	w0, [x19, #16]
   82634:	97fffcfd 	bl	81a28 <uart_hex>
   82638:	9117e300 	add	x0, x24, #0x5f8
   8263c:	97fffce3 	bl	819c8 <uart_puts>
   82640:	6b1c029f 	cmp	w20, w28
   82644:	54fffca1 	b.ne	825d8 <page_alloc.part.0+0xa0>  // b.any
   82648:	b0000000 	adrp	x0, 83000 <print_buddy_info+0xa0>
   8264c:	911c2000 	add	x0, x0, #0x708
   82650:	97fffcde 	bl	819c8 <uart_puts>
   82654:	b9402f40 	ldr	w0, [x26, #44]
   82658:	97fffcf4 	bl	81a28 <uart_hex>
   8265c:	f94037e0 	ldr	x0, [sp, #104]
   82660:	911c6000 	add	x0, x0, #0x718
   82664:	97fffcd9 	bl	819c8 <uart_puts>
   82668:	b0000000 	adrp	x0, 83000 <print_buddy_info+0xa0>
   8266c:	911cc000 	add	x0, x0, #0x730
   82670:	97fffcd6 	bl	819c8 <uart_puts>
   82674:	b9401340 	ldr	w0, [x26, #16]
   82678:	97fffcec 	bl	81a28 <uart_hex>
   8267c:	9117e300 	add	x0, x24, #0x5f8
   82680:	97fffcd2 	bl	819c8 <uart_puts>
   82684:	b0000000 	adrp	x0, 83000 <print_buddy_info+0xa0>
   82688:	911d2000 	add	x0, x0, #0x748
   8268c:	97fffccf 	bl	819c8 <uart_puts>
   82690:	a94153f3 	ldp	x19, x20, [sp, #16]
   82694:	a9425bf5 	ldp	x21, x22, [sp, #32]
   82698:	a94363f7 	ldp	x23, x24, [sp, #48]
   8269c:	a94573fb 	ldp	x27, x28, [sp, #80]
   826a0:	aa1a03e0 	mov	x0, x26
   826a4:	a9446bf9 	ldp	x25, x26, [sp, #64]
   826a8:	a8c77bfd 	ldp	x29, x30, [sp], #112
   826ac:	d65f03c0 	ret
   826b0:	1100079c 	add	w28, w28, #0x1
   826b4:	91004000 	add	x0, x0, #0x10
   826b8:	71002b9f 	cmp	w28, #0xa
   826bc:	54fff561 	b.ne	82568 <page_alloc.part.0+0x30>  // b.any
   826c0:	a94153f3 	ldp	x19, x20, [sp, #16]
   826c4:	a94573fb 	ldp	x27, x28, [sp, #80]
   826c8:	d280001a 	mov	x26, #0x0                   	// #0
   826cc:	b0000000 	adrp	x0, 83000 <print_buddy_info+0xa0>
   826d0:	911d8000 	add	x0, x0, #0x760
   826d4:	97fffcbd 	bl	819c8 <uart_puts>
   826d8:	17fffff2 	b	826a0 <page_alloc.part.0+0x168>
   826dc:	b0000000 	adrp	x0, 83000 <print_buddy_info+0xa0>
   826e0:	b0000018 	adrp	x24, 83000 <print_buddy_info+0xa0>
   826e4:	f90037e0 	str	x0, [sp, #104]
   826e8:	17ffffd8 	b	82648 <page_alloc.part.0+0x110>
   826ec:	d503201f 	nop

00000000000826f0 <buddy_init>:
   826f0:	d0000004 	adrp	x4, 84000 <main+0xdd8>
   826f4:	d2a00082 	mov	x2, #0x40000               	// #262144
   826f8:	52800001 	mov	w1, #0x0                   	// #0
   826fc:	12800003 	mov	w3, #0xffffffff            	// #-1
   82700:	f9426c80 	ldr	x0, [x4, #1240]
   82704:	91004000 	add	x0, x0, #0x10
   82708:	b9000003 	str	w3, [x0]
   8270c:	f900081f 	str	xzr, [x0, #16]
   82710:	2903fc01 	stp	w1, wzr, [x0, #28]
   82714:	11000421 	add	w1, w1, #0x1
   82718:	f9001402 	str	x2, [x0, #40]
   8271c:	7140043f 	cmp	w1, #0x1, lsl #12
   82720:	91010000 	add	x0, x0, #0x40
   82724:	91400442 	add	x2, x2, #0x1, lsl #12
   82728:	54ffff01 	b.ne	82708 <buddy_init+0x18>  // b.any
   8272c:	d0000002 	adrp	x2, 84000 <main+0xdd8>
   82730:	f9426440 	ldr	x0, [x2, #1224]
   82734:	91028001 	add	x1, x0, #0xa0
   82738:	a9000000 	stp	x0, x0, [x0]
   8273c:	91004000 	add	x0, x0, #0x10
   82740:	eb01001f 	cmp	x0, x1
   82744:	54ffffa1 	b.ne	82738 <buddy_init+0x48>  // b.any
   82748:	f9426c80 	ldr	x0, [x4, #1240]
   8274c:	52800125 	mov	w5, #0x9                   	// #9
   82750:	f9426442 	ldr	x2, [x2, #1224]
   82754:	91410004 	add	x4, x0, #0x40, lsl #12
   82758:	91024043 	add	x3, x2, #0x90
   8275c:	d503201f 	nop
   82760:	f9404c41 	ldr	x1, [x2, #152]
   82764:	a9000403 	stp	x3, x1, [x0]
   82768:	b9001005 	str	w5, [x0, #16]
   8276c:	f9004c40 	str	x0, [x2, #152]
   82770:	f9000020 	str	x0, [x1]
   82774:	91402000 	add	x0, x0, #0x8, lsl #12
   82778:	eb00009f 	cmp	x4, x0
   8277c:	54ffff21 	b.ne	82760 <buddy_init+0x70>  // b.any
   82780:	d65f03c0 	ret
   82784:	d503201f 	nop

0000000000082788 <dynamic_allocator_init>:
   82788:	d0000000 	adrp	x0, 84000 <main+0xdd8>
   8278c:	52800081 	mov	w1, #0x4                   	// #4
   82790:	52800026 	mov	w6, #0x1                   	// #1
   82794:	52820005 	mov	w5, #0x1000                	// #4096
   82798:	f9426800 	ldr	x0, [x0, #1232]
   8279c:	91006000 	add	x0, x0, #0x18
   827a0:	d1004002 	sub	x2, x0, #0x10
   827a4:	1ac120c3 	lsl	w3, w6, w1
   827a8:	1ac128a4 	asr	w4, w5, w1
   827ac:	a93e881f 	stp	xzr, x2, [x0, #-24]
   827b0:	11000421 	add	w1, w1, #0x1
   827b4:	a93f8002 	stp	x2, x0, [x0, #-8]
   827b8:	7100303f 	cmp	w1, #0xc
   827bc:	f9000400 	str	x0, [x0, #8]
   827c0:	29020c04 	stp	w4, w3, [x0, #16]
   827c4:	9100c000 	add	x0, x0, #0x30
   827c8:	54fffec1 	b.ne	827a0 <dynamic_allocator_init+0x18>  // b.any
   827cc:	d65f03c0 	ret

00000000000827d0 <memory_init>:
   827d0:	a9bf7bfd 	stp	x29, x30, [sp, #-16]!
   827d4:	910003fd 	mov	x29, sp
   827d8:	97ffffc6 	bl	826f0 <buddy_init>
   827dc:	d0000000 	adrp	x0, 84000 <main+0xdd8>
   827e0:	52800081 	mov	w1, #0x4                   	// #4
   827e4:	52800026 	mov	w6, #0x1                   	// #1
   827e8:	52820005 	mov	w5, #0x1000                	// #4096
   827ec:	f9426800 	ldr	x0, [x0, #1232]
   827f0:	91006000 	add	x0, x0, #0x18
   827f4:	d503201f 	nop
   827f8:	d1004002 	sub	x2, x0, #0x10
   827fc:	1ac120c3 	lsl	w3, w6, w1
   82800:	1ac128a4 	asr	w4, w5, w1
   82804:	a93e881f 	stp	xzr, x2, [x0, #-24]
   82808:	11000421 	add	w1, w1, #0x1
   8280c:	a93f8002 	stp	x2, x0, [x0, #-8]
   82810:	7100303f 	cmp	w1, #0xc
   82814:	f9000400 	str	x0, [x0, #8]
   82818:	29020c04 	stp	w4, w3, [x0, #16]
   8281c:	9100c000 	add	x0, x0, #0x30
   82820:	54fffec1 	b.ne	827f8 <memory_init+0x28>  // b.any
   82824:	a8c17bfd 	ldp	x29, x30, [sp], #16
   82828:	d65f03c0 	ret
   8282c:	d503201f 	nop

0000000000082830 <page_alloc>:
   82830:	7100241f 	cmp	w0, #0x9
   82834:	54000048 	b.hi	8283c <page_alloc+0xc>  // b.pmore
   82838:	17ffff40 	b	82538 <page_alloc.part.0>
   8283c:	d2800000 	mov	x0, #0x0                   	// #0
   82840:	d65f03c0 	ret
   82844:	d503201f 	nop

0000000000082848 <page_free>:
   82848:	a9bb7bfd 	stp	x29, x30, [sp, #-80]!
   8284c:	910003fd 	mov	x29, sp
   82850:	a9046bf9 	stp	x25, x26, [sp, #64]
   82854:	aa0003f9 	mov	x25, x0
   82858:	b9403000 	ldr	w0, [x0, #48]
   8285c:	34000da0 	cbz	w0, 82a10 <page_free+0x1c8>
   82860:	b0000000 	adrp	x0, 83000 <print_buddy_info+0xa0>
   82864:	911ec000 	add	x0, x0, #0x7b0
   82868:	a90153f3 	stp	x19, x20, [sp, #16]
   8286c:	b0000014 	adrp	x20, 83000 <print_buddy_info+0xa0>
   82870:	911c6294 	add	x20, x20, #0x718
   82874:	a90363f7 	stp	x23, x24, [sp, #48]
   82878:	97fffc54 	bl	819c8 <uart_puts>
   8287c:	b9402f20 	ldr	w0, [x25, #44]
   82880:	b0000017 	adrp	x23, 83000 <print_buddy_info+0xa0>
   82884:	d0000018 	adrp	x24, 84000 <main+0xdd8>
   82888:	97fffc68 	bl	81a28 <uart_hex>
   8288c:	aa1403e0 	mov	x0, x20
   82890:	97fffc4e 	bl	819c8 <uart_puts>
   82894:	b0000000 	adrp	x0, 83000 <print_buddy_info+0xa0>
   82898:	911f2000 	add	x0, x0, #0x7c8
   8289c:	97fffc4b 	bl	819c8 <uart_puts>
   828a0:	b9401320 	ldr	w0, [x25, #16]
   828a4:	97fffc61 	bl	81a28 <uart_hex>
   828a8:	9117e2e0 	add	x0, x23, #0x5f8
   828ac:	97fffc47 	bl	819c8 <uart_puts>
   828b0:	b9401323 	ldr	w3, [x25, #16]
   828b4:	52800021 	mov	w1, #0x1                   	// #1
   828b8:	b9402f22 	ldr	w2, [x25, #44]
   828bc:	f9426f00 	ldr	x0, [x24, #1240]
   828c0:	1ac32021 	lsl	w1, w1, w3
   828c4:	4a020021 	eor	w1, w1, w2
   828c8:	937a7c21 	sbfiz	x1, x1, #6, #32
   828cc:	8b000021 	add	x1, x1, x0
   828d0:	b9401020 	ldr	w0, [x1, #16]
   828d4:	f900133f 	str	xzr, [x25, #32]
   828d8:	b900333f 	str	wzr, [x25, #48]
   828dc:	6b00007f 	cmp	w3, w0
   828e0:	7a480800 	ccmp	w0, #0x8, #0x0, eq  // eq = none
   828e4:	540007ac 	b.gt	829d8 <page_free+0x190>
   828e8:	a9025bf5 	stp	x21, x22, [sp, #32]
   828ec:	b0000015 	adrp	x21, 83000 <print_buddy_info+0xa0>
   828f0:	b0000016 	adrp	x22, 83000 <print_buddy_info+0xa0>
   828f4:	911f62b5 	add	x21, x21, #0x7d8
   828f8:	911fc2d6 	add	x22, x22, #0x7f0
   828fc:	d503201f 	nop
   82900:	b9403022 	ldr	w2, [x1, #48]
   82904:	aa1503e0 	mov	x0, x21
   82908:	35000662 	cbnz	w2, 829d4 <page_free+0x18c>
   8290c:	a9401424 	ldp	x4, x5, [x1]
   82910:	b9402c23 	ldr	w3, [x1, #44]
   82914:	b9402f22 	ldr	w2, [x25, #44]
   82918:	6b02007f 	cmp	w3, w2
   8291c:	f90000a4 	str	x4, [x5]
   82920:	9a81c33a 	csel	x26, x25, x1, gt
   82924:	f9000485 	str	x5, [x4, #8]
   82928:	9a99c033 	csel	x19, x1, x25, gt
   8292c:	aa1a03f9 	mov	x25, x26
   82930:	97fffc26 	bl	819c8 <uart_puts>
   82934:	b9402f40 	ldr	w0, [x26, #44]
   82938:	97fffc3c 	bl	81a28 <uart_hex>
   8293c:	aa1403e0 	mov	x0, x20
   82940:	97fffc22 	bl	819c8 <uart_puts>
   82944:	aa1603e0 	mov	x0, x22
   82948:	97fffc20 	bl	819c8 <uart_puts>
   8294c:	b9401340 	ldr	w0, [x26, #16]
   82950:	97fffc36 	bl	81a28 <uart_hex>
   82954:	aa1403e0 	mov	x0, x20
   82958:	97fffc1c 	bl	819c8 <uart_puts>
   8295c:	b0000000 	adrp	x0, 83000 <print_buddy_info+0xa0>
   82960:	91200000 	add	x0, x0, #0x800
   82964:	97fffc19 	bl	819c8 <uart_puts>
   82968:	b9402e60 	ldr	w0, [x19, #44]
   8296c:	97fffc2f 	bl	81a28 <uart_hex>
   82970:	aa1403e0 	mov	x0, x20
   82974:	97fffc15 	bl	819c8 <uart_puts>
   82978:	b0000000 	adrp	x0, 83000 <print_buddy_info+0xa0>
   8297c:	91206000 	add	x0, x0, #0x818
   82980:	97fffc12 	bl	819c8 <uart_puts>
   82984:	b9401260 	ldr	w0, [x19, #16]
   82988:	97fffc28 	bl	81a28 <uart_hex>
   8298c:	9117e2e0 	add	x0, x23, #0x5f8
   82990:	97fffc0e 	bl	819c8 <uart_puts>
   82994:	12800000 	mov	w0, #0xffffffff            	// #-1
   82998:	b9001260 	str	w0, [x19, #16]
   8299c:	52800022 	mov	w2, #0x1                   	// #1
   829a0:	b9402f40 	ldr	w0, [x26, #44]
   829a4:	b9401343 	ldr	w3, [x26, #16]
   829a8:	f9426f01 	ldr	x1, [x24, #1240]
   829ac:	0b020063 	add	w3, w3, w2
   829b0:	b9001343 	str	w3, [x26, #16]
   829b4:	1ac32042 	lsl	w2, w2, w3
   829b8:	4a000042 	eor	w2, w2, w0
   829bc:	937a7c42 	sbfiz	x2, x2, #6, #32
   829c0:	8b010041 	add	x1, x2, x1
   829c4:	b9401020 	ldr	w0, [x1, #16]
   829c8:	7100201f 	cmp	w0, #0x8
   829cc:	7a40d060 	ccmp	w3, w0, #0x0, le
   829d0:	54fff980 	b.eq	82900 <page_free+0xb8>  // b.none
   829d4:	a9425bf5 	ldp	x21, x22, [sp, #32]
   829d8:	d0000001 	adrp	x1, 84000 <main+0xdd8>
   829dc:	a94153f3 	ldp	x19, x20, [sp, #16]
   829e0:	b0000000 	adrp	x0, 83000 <print_buddy_info+0xa0>
   829e4:	f9426421 	ldr	x1, [x1, #1224]
   829e8:	9120a000 	add	x0, x0, #0x828
   829ec:	a94363f7 	ldp	x23, x24, [sp, #48]
   829f0:	8b23d023 	add	x3, x1, w3, sxtw #4
   829f4:	f9400461 	ldr	x1, [x3, #8]
   829f8:	f9000479 	str	x25, [x3, #8]
   829fc:	a9000723 	stp	x3, x1, [x25]
   82a00:	f9000039 	str	x25, [x1]
   82a04:	a9446bf9 	ldp	x25, x26, [sp, #64]
   82a08:	a8c57bfd 	ldp	x29, x30, [sp], #80
   82a0c:	17fffbef 	b	819c8 <uart_puts>
   82a10:	a9446bf9 	ldp	x25, x26, [sp, #64]
   82a14:	b0000000 	adrp	x0, 83000 <print_buddy_info+0xa0>
   82a18:	a8c57bfd 	ldp	x29, x30, [sp], #80
   82a1c:	911e0000 	add	x0, x0, #0x780
   82a20:	17fffbea 	b	819c8 <uart_puts>
   82a24:	d503201f 	nop

0000000000082a28 <obj_malloc>:
   82a28:	a9bc7bfd 	stp	x29, x30, [sp, #-64]!
   82a2c:	910003fd 	mov	x29, sp
   82a30:	a90153f3 	stp	x19, x20, [sp, #16]
   82a34:	93407c13 	sxtw	x19, w0
   82a38:	8b20c662 	add	x2, x19, w0, sxtw #1
   82a3c:	a90363f7 	stp	x23, x24, [sp, #48]
   82a40:	d0000017 	adrp	x23, 84000 <main+0xdd8>
   82a44:	a9025bf5 	stp	x21, x22, [sp, #32]
   82a48:	52800615 	mov	w21, #0x30                  	// #48
   82a4c:	f9426af8 	ldr	x24, [x23, #1232]
   82a50:	9b357c15 	smull	x21, w0, w21
   82a54:	d37cec40 	lsl	x0, x2, #4
   82a58:	f8606b14 	ldr	x20, [x24, x0]
   82a5c:	b40007d4 	cbz	x20, 82b54 <obj_malloc+0x12c>
   82a60:	f9400e96 	ldr	x22, [x20, #24]
   82a64:	f9401e82 	ldr	x2, [x20, #56]
   82a68:	b9402a83 	ldr	w3, [x20, #40]
   82a6c:	cb0202c4 	sub	x4, x22, x2
   82a70:	11000463 	add	w3, w3, #0x1
   82a74:	b98002c0 	ldrsw	x0, [x22]
   82a78:	8b130661 	add	x1, x19, x19, lsl #1
   82a7c:	f9426ae5 	ldr	x5, [x23, #1232]
   82a80:	8b000042 	add	x2, x2, x0
   82a84:	d37cec21 	lsl	x1, x1, #4
   82a88:	f9000e82 	str	x2, [x20, #24]
   82a8c:	8b0100a2 	add	x2, x5, x1
   82a90:	b9002a83 	str	w3, [x20, #40]
   82a94:	b9402840 	ldr	w0, [x2, #40]
   82a98:	6b03001f 	cmp	w0, w3
   82a9c:	54000101 	b.ne	82abc <obj_malloc+0x94>  // b.any
   82aa0:	f9401043 	ldr	x3, [x2, #32]
   82aa4:	910062a0 	add	x0, x21, #0x18
   82aa8:	f9001054 	str	x20, [x2, #32]
   82aac:	8b050000 	add	x0, x0, x5
   82ab0:	a9000e80 	stp	x0, x3, [x20]
   82ab4:	f9000074 	str	x20, [x3]
   82ab8:	f82168bf 	str	xzr, [x5, x1]
   82abc:	f9426ae1 	ldr	x1, [x23, #1232]
   82ac0:	8b130673 	add	x19, x19, x19, lsl #1
   82ac4:	b0000000 	adrp	x0, 83000 <print_buddy_info+0xa0>
   82ac8:	91210000 	add	x0, x0, #0x840
   82acc:	8b131033 	add	x19, x1, x19, lsl #4
   82ad0:	b9802e75 	ldrsw	x21, [x19, #44]
   82ad4:	9ad50c95 	sdiv	x21, x4, x21
   82ad8:	97fffbbc 	bl	819c8 <uart_puts>
   82adc:	b9402e80 	ldr	w0, [x20, #44]
   82ae0:	b0000014 	adrp	x20, 83000 <print_buddy_info+0xa0>
   82ae4:	911c6294 	add	x20, x20, #0x718
   82ae8:	97fffbd0 	bl	81a28 <uart_hex>
   82aec:	aa1403e0 	mov	x0, x20
   82af0:	97fffbb6 	bl	819c8 <uart_puts>
   82af4:	b0000000 	adrp	x0, 83000 <print_buddy_info+0xa0>
   82af8:	91218000 	add	x0, x0, #0x860
   82afc:	97fffbb3 	bl	819c8 <uart_puts>
   82b00:	b9402e60 	ldr	w0, [x19, #44]
   82b04:	97fffbc9 	bl	81a28 <uart_hex>
   82b08:	aa1403e0 	mov	x0, x20
   82b0c:	97fffbaf 	bl	819c8 <uart_puts>
   82b10:	b0000000 	adrp	x0, 83000 <print_buddy_info+0xa0>
   82b14:	9121e000 	add	x0, x0, #0x878
   82b18:	97fffbac 	bl	819c8 <uart_puts>
   82b1c:	2a1503e0 	mov	w0, w21
   82b20:	97fffbc2 	bl	81a28 <uart_hex>
   82b24:	b0000000 	adrp	x0, 83000 <print_buddy_info+0xa0>
   82b28:	9117e000 	add	x0, x0, #0x5f8
   82b2c:	97fffba7 	bl	819c8 <uart_puts>
   82b30:	b0000000 	adrp	x0, 83000 <print_buddy_info+0xa0>
   82b34:	91220000 	add	x0, x0, #0x880
   82b38:	97fffba4 	bl	819c8 <uart_puts>
   82b3c:	aa1603e0 	mov	x0, x22
   82b40:	a94153f3 	ldp	x19, x20, [sp, #16]
   82b44:	a9425bf5 	ldp	x21, x22, [sp, #32]
   82b48:	a94363f7 	ldp	x23, x24, [sp, #48]
   82b4c:	a8c47bfd 	ldp	x29, x30, [sp], #64
   82b50:	d65f03c0 	ret
   82b54:	8b000316 	add	x22, x24, x0
   82b58:	910022a0 	add	x0, x21, #0x8
   82b5c:	8b180000 	add	x0, x0, x24
   82b60:	f94006d4 	ldr	x20, [x22, #8]
   82b64:	eb00029f 	cmp	x20, x0
   82b68:	540001c0 	b.eq	82ba0 <obj_malloc+0x178>  // b.none
   82b6c:	a9400680 	ldp	x0, x1, [x20]
   82b70:	f9400e96 	ldr	x22, [x20, #24]
   82b74:	f9401e82 	ldr	x2, [x20, #56]
   82b78:	b9402a83 	ldr	w3, [x20, #40]
   82b7c:	cb0202c4 	sub	x4, x22, x2
   82b80:	f9000020 	str	x0, [x1]
   82b84:	11000463 	add	w3, w3, #0x1
   82b88:	f9000401 	str	x1, [x0, #8]
   82b8c:	8b130660 	add	x0, x19, x19, lsl #1
   82b90:	f9426ae1 	ldr	x1, [x23, #1232]
   82b94:	d37cec00 	lsl	x0, x0, #4
   82b98:	f8206834 	str	x20, [x1, x0]
   82b9c:	17ffffb6 	b	82a74 <obj_malloc+0x4c>
   82ba0:	52800000 	mov	w0, #0x0                   	// #0
   82ba4:	97fffe65 	bl	82538 <page_alloc.part.0>
   82ba8:	aa0003f4 	mov	x20, x0
   82bac:	8b1802b8 	add	x24, x21, x24
   82bb0:	b9402ac0 	ldr	w0, [x22, #40]
   82bb4:	f9401e82 	ldr	x2, [x20, #56]
   82bb8:	a901e282 	stp	x2, x24, [x20, #24]
   82bbc:	7100001f 	cmp	w0, #0x0
   82bc0:	b9002a9f 	str	wzr, [x20, #40]
   82bc4:	5400022d 	b.le	82c08 <obj_malloc+0x1e0>
   82bc8:	aa1603e0 	mov	x0, x22
   82bcc:	52800004 	mov	w4, #0x0                   	// #0
   82bd0:	b9402c03 	ldr	w3, [x0, #44]
   82bd4:	2a0403e1 	mov	w1, w4
   82bd8:	11000484 	add	w4, w4, #0x1
   82bdc:	1b017c61 	mul	w1, w3, w1
   82be0:	0b010063 	add	w3, w3, w1
   82be4:	b821c843 	str	w3, [x2, w1, sxtw]
   82be8:	b9402801 	ldr	w1, [x0, #40]
   82bec:	6b01009f 	cmp	w4, w1
   82bf0:	54ffff0b 	b.lt	82bd0 <obj_malloc+0x1a8>  // b.tstop
   82bf4:	b9402a83 	ldr	w3, [x20, #40]
   82bf8:	aa0203f6 	mov	x22, x2
   82bfc:	d2800004 	mov	x4, #0x0                   	// #0
   82c00:	11000463 	add	w3, w3, #0x1
   82c04:	17ffffe2 	b	82b8c <obj_malloc+0x164>
   82c08:	aa0203f6 	mov	x22, x2
   82c0c:	d2800004 	mov	x4, #0x0                   	// #0
   82c10:	52800023 	mov	w3, #0x1                   	// #1
   82c14:	17ffffde 	b	82b8c <obj_malloc+0x164>

0000000000082c18 <obj_free>:
   82c18:	a9ba7bfd 	stp	x29, x30, [sp, #-96]!
   82c1c:	910003fd 	mov	x29, sp
   82c20:	a90153f3 	stp	x19, x20, [sp, #16]
   82c24:	aa0003f3 	mov	x19, x0
   82c28:	d1410261 	sub	x1, x19, #0x40, lsl #12
   82c2c:	a90363f7 	stp	x23, x24, [sp, #48]
   82c30:	d0000018 	adrp	x24, 84000 <main+0xdd8>
   82c34:	934cac37 	sbfx	x23, x1, #12, #32
   82c38:	a9046bf9 	stp	x25, x26, [sp, #64]
   82c3c:	92402c21 	and	x1, x1, #0xfff
   82c40:	d37ae6fa 	lsl	x26, x23, #6
   82c44:	f9426f19 	ldr	x25, [x24, #1240]
   82c48:	a9025bf5 	stp	x21, x22, [sp, #32]
   82c4c:	b0000000 	adrp	x0, 83000 <print_buddy_info+0xa0>
   82c50:	8b190354 	add	x20, x26, x25
   82c54:	91212000 	add	x0, x0, #0x848
   82c58:	f9401296 	ldr	x22, [x20, #32]
   82c5c:	b9802ed5 	ldrsw	x21, [x22, #44]
   82c60:	f9002bfb 	str	x27, [sp, #80]
   82c64:	b000001b 	adrp	x27, 83000 <print_buddy_info+0xa0>
   82c68:	911c637b 	add	x27, x27, #0x718
   82c6c:	9ad50c35 	sdiv	x21, x1, x21
   82c70:	97fffb56 	bl	819c8 <uart_puts>
   82c74:	b9402e80 	ldr	w0, [x20, #44]
   82c78:	97fffb6c 	bl	81a28 <uart_hex>
   82c7c:	aa1b03e0 	mov	x0, x27
   82c80:	97fffb52 	bl	819c8 <uart_puts>
   82c84:	b0000000 	adrp	x0, 83000 <print_buddy_info+0xa0>
   82c88:	91218000 	add	x0, x0, #0x860
   82c8c:	97fffb4f 	bl	819c8 <uart_puts>
   82c90:	b9402ec0 	ldr	w0, [x22, #44]
   82c94:	97fffb65 	bl	81a28 <uart_hex>
   82c98:	aa1b03e0 	mov	x0, x27
   82c9c:	97fffb4b 	bl	819c8 <uart_puts>
   82ca0:	b0000000 	adrp	x0, 83000 <print_buddy_info+0xa0>
   82ca4:	9121e000 	add	x0, x0, #0x878
   82ca8:	97fffb48 	bl	819c8 <uart_puts>
   82cac:	2a1503e0 	mov	w0, w21
   82cb0:	97fffb5e 	bl	81a28 <uart_hex>
   82cb4:	b0000000 	adrp	x0, 83000 <print_buddy_info+0xa0>
   82cb8:	9117e000 	add	x0, x0, #0x5f8
   82cbc:	97fffb43 	bl	819c8 <uart_puts>
   82cc0:	f9400e81 	ldr	x1, [x20, #24]
   82cc4:	eb13003f 	cmp	x1, x19
   82cc8:	54000882 	b.cs	82dd8 <obj_free+0x1c0>  // b.hs, b.nlast
   82ccc:	f9401e80 	ldr	x0, [x20, #56]
   82cd0:	b9800021 	ldrsw	x1, [x1]
   82cd4:	8b010000 	add	x0, x0, x1
   82cd8:	eb00027f 	cmp	x19, x0
   82cdc:	540005c3 	b.cc	82d94 <obj_free+0x17c>  // b.lo, b.ul, b.last
   82ce0:	b0000000 	adrp	x0, 83000 <print_buddy_info+0xa0>
   82ce4:	9122c000 	add	x0, x0, #0x8b0
   82ce8:	97fffb38 	bl	819c8 <uart_puts>
   82cec:	f9400e81 	ldr	x1, [x20, #24]
   82cf0:	f9401e83 	ldr	x3, [x20, #56]
   82cf4:	d503201f 	nop
   82cf8:	aa0103e2 	mov	x2, x1
   82cfc:	b9400020 	ldr	w0, [x1]
   82d00:	8b20c061 	add	x1, x3, w0, sxtw
   82d04:	eb13003f 	cmp	x1, x19
   82d08:	54ffff83 	b.cc	82cf8 <obj_free+0xe0>  // b.lo, b.ul, b.last
   82d0c:	f9426f01 	ldr	x1, [x24, #1240]
   82d10:	b9000260 	str	w0, [x19]
   82d14:	8b171820 	add	x0, x1, x23, lsl #6
   82d18:	f9401c00 	ldr	x0, [x0, #56]
   82d1c:	cb000273 	sub	x19, x19, x0
   82d20:	b9000053 	str	w19, [x2]
   82d24:	f9426f18 	ldr	x24, [x24, #1240]
   82d28:	d37ae6f7 	lsl	x23, x23, #6
   82d2c:	8b170300 	add	x0, x24, x23
   82d30:	b9402801 	ldr	w1, [x0, #40]
   82d34:	51000421 	sub	w1, w1, #0x1
   82d38:	b9002801 	str	w1, [x0, #40]
   82d3c:	f9400682 	ldr	x2, [x20, #8]
   82d40:	f8796b41 	ldr	x1, [x26, x25]
   82d44:	f9000041 	str	x1, [x2]
   82d48:	f9000422 	str	x2, [x1, #8]
   82d4c:	b9402801 	ldr	w1, [x0, #40]
   82d50:	7100003f 	cmp	w1, #0x0
   82d54:	5400036d 	b.le	82dc0 <obj_free+0x1a8>
   82d58:	f9400ac1 	ldr	x1, [x22, #16]
   82d5c:	f9000ad4 	str	x20, [x22, #16]
   82d60:	910022d6 	add	x22, x22, #0x8
   82d64:	f8376b16 	str	x22, [x24, x23]
   82d68:	f9000401 	str	x1, [x0, #8]
   82d6c:	f9000034 	str	x20, [x1]
   82d70:	a94153f3 	ldp	x19, x20, [sp, #16]
   82d74:	b0000000 	adrp	x0, 83000 <print_buddy_info+0xa0>
   82d78:	a9425bf5 	ldp	x21, x22, [sp, #32]
   82d7c:	91238000 	add	x0, x0, #0x8e0
   82d80:	a94363f7 	ldp	x23, x24, [sp, #48]
   82d84:	a9446bf9 	ldp	x25, x26, [sp, #64]
   82d88:	f9402bfb 	ldr	x27, [sp, #80]
   82d8c:	a8c67bfd 	ldp	x29, x30, [sp], #96
   82d90:	17fffb0e 	b	819c8 <uart_puts>
   82d94:	b0000000 	adrp	x0, 83000 <print_buddy_info+0xa0>
   82d98:	91226000 	add	x0, x0, #0x898
   82d9c:	97fffb0b 	bl	819c8 <uart_puts>
   82da0:	f9400e80 	ldr	x0, [x20, #24]
   82da4:	b9400000 	ldr	w0, [x0]
   82da8:	b9000260 	str	w0, [x19]
   82dac:	f9400e81 	ldr	x1, [x20, #24]
   82db0:	f9401e80 	ldr	x0, [x20, #56]
   82db4:	cb000273 	sub	x19, x19, x0
   82db8:	b9000033 	str	w19, [x1]
   82dbc:	17ffffda 	b	82d24 <obj_free+0x10c>
   82dc0:	f94002c0 	ldr	x0, [x22]
   82dc4:	eb14001f 	cmp	x0, x20
   82dc8:	540001a0 	b.eq	82dfc <obj_free+0x1e4>  // b.none
   82dcc:	aa1403e0 	mov	x0, x20
   82dd0:	97fffe9e 	bl	82848 <page_free>
   82dd4:	17ffffe7 	b	82d70 <obj_free+0x158>
   82dd8:	b0000000 	adrp	x0, 83000 <print_buddy_info+0xa0>
   82ddc:	91232000 	add	x0, x0, #0x8c8
   82de0:	97fffafa 	bl	819c8 <uart_puts>
   82de4:	f9400e80 	ldr	x0, [x20, #24]
   82de8:	f9401e81 	ldr	x1, [x20, #56]
   82dec:	cb010000 	sub	x0, x0, x1
   82df0:	b9000260 	str	w0, [x19]
   82df4:	f9000e93 	str	x19, [x20, #24]
   82df8:	17ffffcb 	b	82d24 <obj_free+0x10c>
   82dfc:	f90002df 	str	xzr, [x22]
   82e00:	17fffff3 	b	82dcc <obj_free+0x1b4>
   82e04:	d503201f 	nop

0000000000082e08 <memory_allocation>:
   82e08:	a9be7bfd 	stp	x29, x30, [sp, #-32]!
   82e0c:	7120001f 	cmp	w0, #0x800
   82e10:	910003fd 	mov	x29, sp
   82e14:	f9000bf3 	str	x19, [sp, #16]
   82e18:	5400024c 	b.gt	82e60 <memory_allocation+0x58>
   82e1c:	52800093 	mov	w19, #0x4                   	// #4
   82e20:	52800022 	mov	w2, #0x1                   	// #1
   82e24:	d503201f 	nop
   82e28:	1ad32041 	lsl	w1, w2, w19
   82e2c:	6b00003f 	cmp	w1, w0
   82e30:	540004ea 	b.ge	82ecc <memory_allocation+0xc4>  // b.tcont
   82e34:	11000673 	add	w19, w19, #0x1
   82e38:	7100327f 	cmp	w19, #0xc
   82e3c:	54ffff61 	b.ne	82e28 <memory_allocation+0x20>  // b.any
   82e40:	d2800013 	mov	x19, #0x0                   	// #0
   82e44:	b0000000 	adrp	x0, 83000 <print_buddy_info+0xa0>
   82e48:	91254000 	add	x0, x0, #0x950
   82e4c:	97fffadf 	bl	819c8 <uart_puts>
   82e50:	aa1303e0 	mov	x0, x19
   82e54:	f9400bf3 	ldr	x19, [sp, #16]
   82e58:	a8c27bfd 	ldp	x29, x30, [sp], #32
   82e5c:	d65f03c0 	ret
   82e60:	52800013 	mov	w19, #0x0                   	// #0
   82e64:	11003261 	add	w1, w19, #0xc
   82e68:	52800022 	mov	w2, #0x1                   	// #1
   82e6c:	1ac12041 	lsl	w1, w2, w1
   82e70:	6b00003f 	cmp	w1, w0
   82e74:	5400010a 	b.ge	82e94 <memory_allocation+0x8c>  // b.tcont
   82e78:	11000673 	add	w19, w19, #0x1
   82e7c:	7100267f 	cmp	w19, #0x9
   82e80:	54fffe00 	b.eq	82e40 <memory_allocation+0x38>  // b.none
   82e84:	11003261 	add	w1, w19, #0xc
   82e88:	1ac12041 	lsl	w1, w2, w1
   82e8c:	6b00003f 	cmp	w1, w0
   82e90:	54ffff4b 	b.lt	82e78 <memory_allocation+0x70>  // b.tstop
   82e94:	b0000000 	adrp	x0, 83000 <print_buddy_info+0xa0>
   82e98:	9124c000 	add	x0, x0, #0x930
   82e9c:	97fffacb 	bl	819c8 <uart_puts>
   82ea0:	2a1303e0 	mov	w0, w19
   82ea4:	97fffda5 	bl	82538 <page_alloc.part.0>
   82ea8:	aa0003e1 	mov	x1, x0
   82eac:	b0000000 	adrp	x0, 83000 <print_buddy_info+0xa0>
   82eb0:	91246000 	add	x0, x0, #0x918
   82eb4:	f9401c33 	ldr	x19, [x1, #56]
   82eb8:	97fffac4 	bl	819c8 <uart_puts>
   82ebc:	aa1303e0 	mov	x0, x19
   82ec0:	f9400bf3 	ldr	x19, [sp, #16]
   82ec4:	a8c27bfd 	ldp	x29, x30, [sp], #32
   82ec8:	d65f03c0 	ret
   82ecc:	b0000000 	adrp	x0, 83000 <print_buddy_info+0xa0>
   82ed0:	9123e000 	add	x0, x0, #0x8f8
   82ed4:	97fffabd 	bl	819c8 <uart_puts>
   82ed8:	51001260 	sub	w0, w19, #0x4
   82edc:	97fffed3 	bl	82a28 <obj_malloc>
   82ee0:	b0000001 	adrp	x1, 83000 <print_buddy_info+0xa0>
   82ee4:	aa0003f3 	mov	x19, x0
   82ee8:	91246020 	add	x0, x1, #0x918
   82eec:	97fffab7 	bl	819c8 <uart_puts>
   82ef0:	aa1303e0 	mov	x0, x19
   82ef4:	f9400bf3 	ldr	x19, [sp, #16]
   82ef8:	a8c27bfd 	ldp	x29, x30, [sp], #32
   82efc:	d65f03c0 	ret

0000000000082f00 <memory_free>:
   82f00:	a9bf7bfd 	stp	x29, x30, [sp, #-16]!
   82f04:	d0000002 	adrp	x2, 84000 <main+0xdd8>
   82f08:	d1410001 	sub	x1, x0, #0x40, lsl #12
   82f0c:	910003fd 	mov	x29, sp
   82f10:	f9426c42 	ldr	x2, [x2, #1240]
   82f14:	934cac21 	sbfx	x1, x1, #12, #32
   82f18:	8b011841 	add	x1, x2, x1, lsl #6
   82f1c:	f9401022 	ldr	x2, [x1, #32]
   82f20:	b40000c2 	cbz	x2, 82f38 <memory_free+0x38>
   82f24:	97ffff3d 	bl	82c18 <obj_free>
   82f28:	a8c17bfd 	ldp	x29, x30, [sp], #16
   82f2c:	b0000000 	adrp	x0, 83000 <print_buddy_info+0xa0>
   82f30:	91262000 	add	x0, x0, #0x988
   82f34:	17fffaa5 	b	819c8 <uart_puts>
   82f38:	aa0103e0 	mov	x0, x1
   82f3c:	97fffe43 	bl	82848 <page_free>
   82f40:	a8c17bfd 	ldp	x29, x30, [sp], #16
   82f44:	b0000000 	adrp	x0, 83000 <print_buddy_info+0xa0>
   82f48:	91262000 	add	x0, x0, #0x988
   82f4c:	17fffa9f 	b	819c8 <uart_puts>

0000000000082f50 <find_buddy>:
   82f50:	52800022 	mov	w2, #0x1                   	// #1
   82f54:	1ac12042 	lsl	w2, w2, w1
   82f58:	4a000040 	eor	w0, w2, w0
   82f5c:	d65f03c0 	ret

0000000000082f60 <print_buddy_info>:
   82f60:	a9bc7bfd 	stp	x29, x30, [sp, #-64]!
   82f64:	910003fd 	mov	x29, sp
   82f68:	a90153f3 	stp	x19, x20, [sp, #16]
   82f6c:	d0000013 	adrp	x19, 84000 <main+0xdd8>
   82f70:	52800014 	mov	w20, #0x0                   	// #0
   82f74:	a9025bf5 	stp	x21, x22, [sp, #32]
   82f78:	b0000016 	adrp	x22, 83000 <print_buddy_info+0xa0>
   82f7c:	b0000015 	adrp	x21, 83000 <print_buddy_info+0xa0>
   82f80:	f9001bf7 	str	x23, [sp, #48]
   82f84:	b0000017 	adrp	x23, 83000 <print_buddy_info+0xa0>
   82f88:	912682e0 	add	x0, x23, #0x9a0
   82f8c:	97fffa8f 	bl	819c8 <uart_puts>
   82f90:	b0000000 	adrp	x0, 83000 <print_buddy_info+0xa0>
   82f94:	91274000 	add	x0, x0, #0x9d0
   82f98:	97fffa8c 	bl	819c8 <uart_puts>
   82f9c:	911c62d6 	add	x22, x22, #0x718
   82fa0:	b0000000 	adrp	x0, 83000 <print_buddy_info+0xa0>
   82fa4:	91278000 	add	x0, x0, #0x9e0
   82fa8:	97fffa88 	bl	819c8 <uart_puts>
   82fac:	9123c2b5 	add	x21, x21, #0x8f0
   82fb0:	f9426673 	ldr	x19, [x19, #1224]
   82fb4:	d503201f 	nop
   82fb8:	2a1403e0 	mov	w0, w20
   82fbc:	97fffa49 	bl	818e0 <uart_put_int>
   82fc0:	aa1603e0 	mov	x0, x22
   82fc4:	97fffa81 	bl	819c8 <uart_puts>
   82fc8:	f9400261 	ldr	x1, [x19]
   82fcc:	52800000 	mov	w0, #0x0                   	// #0
   82fd0:	eb13003f 	cmp	x1, x19
   82fd4:	540000a0 	b.eq	82fe8 <print_buddy_info+0x88>  // b.none
   82fd8:	f9400021 	ldr	x1, [x1]
   82fdc:	11000400 	add	w0, w0, #0x1
   82fe0:	eb13003f 	cmp	x1, x19
   82fe4:	54ffffa1 	b.ne	82fd8 <print_buddy_info+0x78>  // b.any
   82fe8:	97fffa3e 	bl	818e0 <uart_put_int>
   82fec:	11000694 	add	w20, w20, #0x1
   82ff0:	aa1503e0 	mov	x0, x21
   82ff4:	97fffa75 	bl	819c8 <uart_puts>
   82ff8:	91004273 	add	x19, x19, #0x10
   82ffc:	71002a9f 	cmp	w20, #0xa
   83000:	54fffdc1 	b.ne	82fb8 <print_buddy_info+0x58>  // b.any
   83004:	912682e0 	add	x0, x23, #0x9a0
   83008:	a94153f3 	ldp	x19, x20, [sp, #16]
   8300c:	a9425bf5 	ldp	x21, x22, [sp, #32]
   83010:	f9401bf7 	ldr	x23, [sp, #48]
   83014:	a8c47bfd 	ldp	x29, x30, [sp], #64
   83018:	17fffa6c 	b	819c8 <uart_puts>
   8301c:	d503201f 	nop

0000000000083020 <mm>:
   83020:	a9be7bfd 	stp	x29, x30, [sp, #-32]!
   83024:	90000000 	adrp	x0, 83000 <print_buddy_info+0xa0>
   83028:	9127e000 	add	x0, x0, #0x9f8
   8302c:	910003fd 	mov	x29, sp
   83030:	f9000bf3 	str	x19, [sp, #16]
   83034:	97fffa65 	bl	819c8 <uart_puts>
   83038:	97ffffca 	bl	82f60 <print_buddy_info>
   8303c:	90000000 	adrp	x0, 83000 <print_buddy_info+0xa0>
   83040:	91290000 	add	x0, x0, #0xa40
   83044:	97fffa61 	bl	819c8 <uart_puts>
   83048:	52800200 	mov	w0, #0x10                  	// #16
   8304c:	97ffff6f 	bl	82e08 <memory_allocation>
   83050:	aa0003f3 	mov	x19, x0
   83054:	97ffffc3 	bl	82f60 <print_buddy_info>
   83058:	90000000 	adrp	x0, 83000 <print_buddy_info+0xa0>
   8305c:	912a2000 	add	x0, x0, #0xa88
   83060:	97fffa5a 	bl	819c8 <uart_puts>
   83064:	aa1303e0 	mov	x0, x19
   83068:	97ffffa6 	bl	82f00 <memory_free>
   8306c:	97ffffbd 	bl	82f60 <print_buddy_info>
   83070:	90000000 	adrp	x0, 83000 <print_buddy_info+0xa0>
   83074:	912b4000 	add	x0, x0, #0xad0
   83078:	97fffa54 	bl	819c8 <uart_puts>
   8307c:	52880000 	mov	w0, #0x4000                	// #16384
   83080:	97ffff62 	bl	82e08 <memory_allocation>
   83084:	aa0003f3 	mov	x19, x0
   83088:	97ffffb6 	bl	82f60 <print_buddy_info>
   8308c:	90000000 	adrp	x0, 83000 <print_buddy_info+0xa0>
   83090:	912c8000 	add	x0, x0, #0xb20
   83094:	97fffa4d 	bl	819c8 <uart_puts>
   83098:	aa1303e0 	mov	x0, x19
   8309c:	97ffff99 	bl	82f00 <memory_free>
   830a0:	f9400bf3 	ldr	x19, [sp, #16]
   830a4:	a8c27bfd 	ldp	x29, x30, [sp], #32
   830a8:	17ffffae 	b	82f60 <print_buddy_info>
   830ac:	00000000 	.inst	0x00000000 ; undefined

00000000000830b0 <fdt_parser>:
   830b0:	a9bc7bfd 	stp	x29, x30, [sp, #-64]!
   830b4:	910003fd 	mov	x29, sp
   830b8:	a9025bf5 	stp	x21, x22, [sp, #32]
   830bc:	aa0003f6 	mov	x22, x0
   830c0:	aa0103f5 	mov	x21, x1
   830c4:	5281ba00 	mov	w0, #0xdd0                 	// #3536
   830c8:	b94002c1 	ldr	w1, [x22]
   830cc:	72bdbfc0 	movk	w0, #0xedfe, lsl #16
   830d0:	6b00003f 	cmp	w1, w0
   830d4:	540004e1 	b.ne	83170 <fdt_parser+0xc0>  // b.any
   830d8:	a90153f3 	stp	x19, x20, [sp, #16]
   830dc:	a90363f7 	stp	x23, x24, [sp, #48]
   830e0:	29415ed3 	ldp	w19, w23, [x22, #8]
   830e4:	5ac00a60 	rev	w0, w19
   830e8:	5ac00a73 	rev	w19, w19
   830ec:	8b1302d3 	add	x19, x22, x19
   830f0:	5ac00af7 	rev	w23, w23
   830f4:	b8604ac2 	ldr	w2, [x22, w0, uxtw]
   830f8:	5ac00840 	rev	w0, w2
   830fc:	7100241f 	cmp	w0, #0x9
   83100:	54000340 	b.eq	83168 <fdt_parser+0xb8>  // b.none
   83104:	d2800018 	mov	x24, #0x0                   	// #0
   83108:	14000008 	b	83128 <fdt_parser+0x78>
   8310c:	b9400661 	ldr	w1, [x19, #4]
   83110:	71000c1f 	cmp	w0, #0x3
   83114:	5ac00820 	rev	w0, w1
   83118:	54000320 	b.eq	8317c <fdt_parser+0xcc>  // b.none
   8311c:	aa1403f3 	mov	x19, x20
   83120:	7100241f 	cmp	w0, #0x9
   83124:	54000220 	b.eq	83168 <fdt_parser+0xb8>  // b.none
   83128:	7100041f 	cmp	w0, #0x1
   8312c:	91001274 	add	x20, x19, #0x4
   83130:	54fffee1 	b.ne	8310c <fdt_parser+0x5c>  // b.any
   83134:	aa1403e0 	mov	x0, x20
   83138:	97fff964 	bl	816c8 <strlen>
   8313c:	11000400 	add	w0, w0, #0x1
   83140:	97fffc76 	bl	82318 <align_by_4>
   83144:	927ef400 	and	x0, x0, #0xfffffffffffffffc
   83148:	aa1403f8 	mov	x24, x20
   8314c:	8b000260 	add	x0, x19, x0
   83150:	91001013 	add	x19, x0, #0x4
   83154:	b9400402 	ldr	w2, [x0, #4]
   83158:	5ac00840 	rev	w0, w2
   8315c:	7100241f 	cmp	w0, #0x9
   83160:	54fffe41 	b.ne	83128 <fdt_parser+0x78>  // b.any
   83164:	d503201f 	nop
   83168:	a94153f3 	ldp	x19, x20, [sp, #16]
   8316c:	a94363f7 	ldp	x23, x24, [sp, #48]
   83170:	a9425bf5 	ldp	x21, x22, [sp, #32]
   83174:	a8c47bfd 	ldp	x29, x30, [sp], #64
   83178:	d65f03c0 	ret
   8317c:	97fffc67 	bl	82318 <align_by_4>
   83180:	91002001 	add	x1, x0, #0x8
   83184:	b9400a62 	ldr	w2, [x19, #8]
   83188:	aa1403e0 	mov	x0, x20
   8318c:	927ef434 	and	x20, x1, #0xfffffffffffffffc
   83190:	aa1803e1 	mov	x1, x24
   83194:	8b140274 	add	x20, x19, x20
   83198:	5ac00842 	rev	w2, w2
   8319c:	8b170042 	add	x2, x2, x23
   831a0:	91001293 	add	x19, x20, #0x4
   831a4:	8b0202c2 	add	x2, x22, x2
   831a8:	d63f02a0 	blr	x21
   831ac:	b9400682 	ldr	w2, [x20, #4]
   831b0:	5ac00840 	rev	w0, w2
   831b4:	17ffffdb 	b	83120 <fdt_parser+0x70>

00000000000831b8 <initramfs_callback>:
   831b8:	a9be7bfd 	stp	x29, x30, [sp, #-32]!
   831bc:	90000001 	adrp	x1, 83000 <print_buddy_info+0xa0>
   831c0:	912da021 	add	x1, x1, #0xb68
   831c4:	910003fd 	mov	x29, sp
   831c8:	f9000bf3 	str	x19, [sp, #16]
   831cc:	aa0003f3 	mov	x19, x0
   831d0:	aa0203e0 	mov	x0, x2
   831d4:	97fff8ef 	bl	81590 <strcmp>
   831d8:	34000080 	cbz	w0, 831e8 <initramfs_callback+0x30>
   831dc:	f9400bf3 	ldr	x19, [sp, #16]
   831e0:	a8c27bfd 	ldp	x29, x30, [sp], #32
   831e4:	d65f03c0 	ret
   831e8:	b0000001 	adrp	x1, 84000 <main+0xdd8>
   831ec:	b9400a62 	ldr	w2, [x19, #8]
   831f0:	90000000 	adrp	x0, 83000 <print_buddy_info+0xa0>
   831f4:	912e0000 	add	x0, x0, #0xb80
   831f8:	f9428033 	ldr	x19, [x1, #1280]
   831fc:	5ac00842 	rev	w2, w2
   83200:	f9000262 	str	x2, [x19]
   83204:	97fff9f1 	bl	819c8 <uart_puts>
   83208:	b9400260 	ldr	w0, [x19]
   8320c:	97fffa07 	bl	81a28 <uart_hex>
   83210:	f9400bf3 	ldr	x19, [sp, #16]
   83214:	90000000 	adrp	x0, 83000 <print_buddy_info+0xa0>
   83218:	a8c27bfd 	ldp	x29, x30, [sp], #32
   8321c:	9117e000 	add	x0, x0, #0x5f8
   83220:	17fff9ea 	b	819c8 <uart_puts>

Disassembly of section .text.startup:

0000000000083228 <main>:
   83228:	a9be7bfd 	stp	x29, x30, [sp, #-32]!
   8322c:	910003fd 	mov	x29, sp
   83230:	f9000bf3 	str	x19, [sp, #16]
   83234:	aa0003f3 	mov	x19, x0
   83238:	97fff95a 	bl	817a0 <uart_init>
   8323c:	b0000001 	adrp	x1, 84000 <main+0xdd8>
   83240:	aa1303e0 	mov	x0, x19
   83244:	f9427021 	ldr	x1, [x1, #1248]
   83248:	97ffff9a 	bl	830b0 <fdt_parser>
   8324c:	90000000 	adrp	x0, 83000 <print_buddy_info+0xa0>
   83250:	912e6000 	add	x0, x0, #0xb98
   83254:	97fff9dd 	bl	819c8 <uart_puts>
   83258:	97fffd5e 	bl	827d0 <memory_init>
   8325c:	f9400bf3 	ldr	x19, [sp, #16]
   83260:	a8c27bfd 	ldp	x29, x30, [sp], #32
   83264:	17fff8b9 	b	81548 <exe_shell>
