
bootloader.elf:     file format elf64-littleaarch64


Disassembly of section .text:

0000000000060000 <_code>:
   60000:	d53800a1 	mrs	x1, mpidr_el1
   60004:	92400421 	and	x1, x1, #0x3
   60008:	b4000061 	cbz	x1, 60014 <_code+0x14>
   6000c:	d503205f 	wfe
   60010:	17ffffff 	b	6000c <_code+0xc>
   60014:	aa0003ea 	mov	x10, x0
   60018:	58000281 	ldr	x1, 60068 <_code+0x68>
   6001c:	580002a2 	ldr	x2, 60070 <_code+0x70>
   60020:	180001e3 	ldr	w3, 6005c <_code+0x5c>
   60024:	f8408424 	ldr	x4, [x1], #8
   60028:	f8008444 	str	x4, [x2], #8
   6002c:	51000463 	sub	w3, w3, #0x1
   60030:	35ffffa3 	cbnz	w3, 60024 <_code+0x24>
   60034:	580001e1 	ldr	x1, 60070 <_code+0x70>
   60038:	9100003f 	mov	sp, x1
   6003c:	580001e1 	ldr	x1, 60078 <_code+0x78>
   60040:	18000102 	ldr	w2, 60060 <_code+0x60>
   60044:	34000082 	cbz	w2, 60054 <_code+0x54>
   60048:	f800843f 	str	xzr, [x1], #8
   6004c:	51000442 	sub	w2, w2, #0x1
   60050:	35ffffa2 	cbnz	w2, 60044 <_code+0x44>
   60054:	97ff8097 	bl	402b0 <__loader_size+0x4021c>
   60058:	17ffffed 	b	6000c <_code+0xc>
   6005c:	00000094 	.word	0x00000094
   60060:	00000012 	.word	0x00000012
   60064:	00000000 	.inst	0x00000000 ; undefined
   60068:	00080000 	.word	0x00080000
   6006c:	00000000 	.word	0x00000000
   60070:	00060000 	.word	0x00060000
   60074:	00000000 	.word	0x00000000
   60078:	00060410 	.word	0x00060410
   6007c:	00000000 	.word	0x00000000

0000000000060080 <uart_init>:
   60080:	a9be7bfd 	stp	x29, x30, [sp, #-32]!
   60084:	d2820600 	mov	x0, #0x1030                	// #4144
   60088:	f2a7e400 	movk	x0, #0x3f20, lsl #16
   6008c:	910003fd 	mov	x29, sp
   60090:	d2800082 	mov	x2, #0x4                   	// #4
   60094:	f9000bf3 	str	x19, [sp, #16]
   60098:	f2a7e402 	movk	x2, #0x3f20, lsl #16
   6009c:	b900001f 	str	wzr, [x0]
   600a0:	d2801283 	mov	x3, #0x94                  	// #148
   600a4:	52880004 	mov	w4, #0x4000                	// #16384
   600a8:	b9400041 	ldr	w1, [x2]
   600ac:	f2a7e403 	movk	x3, #0x3f20, lsl #16
   600b0:	72a00044 	movk	w4, #0x2, lsl #16
   600b4:	528012c0 	mov	w0, #0x96                  	// #150
   600b8:	120e6421 	and	w1, w1, #0xfffc0fff
   600bc:	2a040021 	orr	w1, w1, w4
   600c0:	b9000041 	str	w1, [x2]
   600c4:	b900007f 	str	wzr, [x3]
   600c8:	d503201f 	nop
   600cc:	71000400 	subs	w0, w0, #0x1
   600d0:	54ffffc1 	b.ne	600c8 <uart_init+0x48>  // b.any
   600d4:	d2801301 	mov	x1, #0x98                  	// #152
   600d8:	52980002 	mov	w2, #0xc000                	// #49152
   600dc:	f2a7e401 	movk	x1, #0x3f20, lsl #16
   600e0:	528012c0 	mov	w0, #0x96                  	// #150
   600e4:	b9000022 	str	w2, [x1]
   600e8:	d503201f 	nop
   600ec:	71000400 	subs	w0, w0, #0x1
   600f0:	54ffffc1 	b.ne	600e8 <uart_init+0x68>  // b.any
   600f4:	90000001 	adrp	x1, 60000 <_code>
   600f8:	d2801302 	mov	x2, #0x98                  	// #152
   600fc:	f2a7e402 	movk	x2, #0x3f20, lsl #16
   60100:	52800480 	mov	w0, #0x24                  	// #36
   60104:	f941f421 	ldr	x1, [x1, #1000]
   60108:	b900005f 	str	wzr, [x2]
   6010c:	52900045 	mov	w5, #0x8002                	// #32770
   60110:	52800184 	mov	w4, #0xc                   	// #12
   60114:	72a00065 	movk	w5, #0x3, lsl #16
   60118:	52800102 	mov	w2, #0x8                   	// #8
   6011c:	b9000020 	str	w0, [x1]
   60120:	52800053 	mov	w19, #0x2                   	// #2
   60124:	b900043f 	str	wzr, [x1, #4]
   60128:	52812003 	mov	w3, #0x900                 	// #2304
   6012c:	b9000825 	str	w5, [x1, #8]
   60130:	72a007a3 	movk	w3, #0x3d, lsl #16
   60134:	b9000c24 	str	w4, [x1, #12]
   60138:	2a0203e0 	mov	w0, w2
   6013c:	b9001022 	str	w2, [x1, #16]
   60140:	b9001433 	str	w19, [x1, #20]
   60144:	b9001823 	str	w3, [x1, #24]
   60148:	b9001c3f 	str	wzr, [x1, #28]
   6014c:	b900203f 	str	wzr, [x1, #32]
   60150:	9400007a 	bl	60338 <mbox_call>
   60154:	d2820881 	mov	x1, #0x1044                	// #4164
   60158:	d2820480 	mov	x0, #0x1024                	// #4132
   6015c:	f2a7e401 	movk	x1, #0x3f20, lsl #16
   60160:	f2a7e400 	movk	x0, #0x3f20, lsl #16
   60164:	d2820502 	mov	x2, #0x1028                	// #4136
   60168:	5280ffe3 	mov	w3, #0x7ff                 	// #2047
   6016c:	f2a7e402 	movk	x2, #0x3f20, lsl #16
   60170:	b9000023 	str	w3, [x1]
   60174:	d2820581 	mov	x1, #0x102c                	// #4140
   60178:	b9000013 	str	w19, [x0]
   6017c:	f2a7e401 	movk	x1, #0x3f20, lsl #16
   60180:	52800163 	mov	w3, #0xb                   	// #11
   60184:	f9400bf3 	ldr	x19, [sp, #16]
   60188:	b9000043 	str	w3, [x2]
   6018c:	52800e02 	mov	w2, #0x70                  	// #112
   60190:	b9000022 	str	w2, [x1]
   60194:	52806021 	mov	w1, #0x301                 	// #769
   60198:	b9000c01 	str	w1, [x0, #12]
   6019c:	a8c27bfd 	ldp	x29, x30, [sp], #32
   601a0:	d65f03c0 	ret
   601a4:	d503201f 	nop

00000000000601a8 <uart_send>:
   601a8:	d2820302 	mov	x2, #0x1018                	// #4120
   601ac:	f2a7e402 	movk	x2, #0x3f20, lsl #16
   601b0:	d503201f 	nop
   601b4:	b9400041 	ldr	w1, [x2]
   601b8:	372fffc1 	tbnz	w1, #5, 601b0 <uart_send+0x8>
   601bc:	d2820001 	mov	x1, #0x1000                	// #4096
   601c0:	f2a7e401 	movk	x1, #0x3f20, lsl #16
   601c4:	b9000020 	str	w0, [x1]
   601c8:	d65f03c0 	ret
   601cc:	d503201f 	nop

00000000000601d0 <uart_getc>:
   601d0:	d2820301 	mov	x1, #0x1018                	// #4120
   601d4:	f2a7e401 	movk	x1, #0x3f20, lsl #16
   601d8:	d503201f 	nop
   601dc:	b9400020 	ldr	w0, [x1]
   601e0:	3727ffc0 	tbnz	w0, #4, 601d8 <uart_getc+0x8>
   601e4:	d2820000 	mov	x0, #0x1000                	// #4096
   601e8:	f2a7e400 	movk	x0, #0x3f20, lsl #16
   601ec:	b9400000 	ldr	w0, [x0]
   601f0:	d65f03c0 	ret
   601f4:	d503201f 	nop

00000000000601f8 <uart_puts>:
   601f8:	39400001 	ldrb	w1, [x0]
   601fc:	34000221 	cbz	w1, 60240 <uart_puts+0x48>
   60200:	d2820302 	mov	x2, #0x1018                	// #4120
   60204:	d2820004 	mov	x4, #0x1000                	// #4096
   60208:	f2a7e402 	movk	x2, #0x3f20, lsl #16
   6020c:	f2a7e404 	movk	x4, #0x3f20, lsl #16
   60210:	528001a5 	mov	w5, #0xd                   	// #13
   60214:	d503201f 	nop
   60218:	7100283f 	cmp	w1, #0xa
   6021c:	54000140 	b.eq	60244 <uart_puts+0x4c>  // b.none
   60220:	38401403 	ldrb	w3, [x0], #1
   60224:	d503201f 	nop
   60228:	d503201f 	nop
   6022c:	b9400041 	ldr	w1, [x2]
   60230:	372fffc1 	tbnz	w1, #5, 60228 <uart_puts+0x30>
   60234:	b9000083 	str	w3, [x4]
   60238:	39400001 	ldrb	w1, [x0]
   6023c:	35fffee1 	cbnz	w1, 60218 <uart_puts+0x20>
   60240:	d65f03c0 	ret
   60244:	d503201f 	nop
   60248:	b9400041 	ldr	w1, [x2]
   6024c:	372fffc1 	tbnz	w1, #5, 60244 <uart_puts+0x4c>
   60250:	b9000085 	str	w5, [x4]
   60254:	17fffff3 	b	60220 <uart_puts+0x28>

0000000000060258 <uart_hex>:
   60258:	d2820302 	mov	x2, #0x1018                	// #4120
   6025c:	d2820005 	mov	x5, #0x1000                	// #4096
   60260:	52800383 	mov	w3, #0x1c                  	// #28
   60264:	528006e7 	mov	w7, #0x37                  	// #55
   60268:	52800606 	mov	w6, #0x30                  	// #48
   6026c:	f2a7e402 	movk	x2, #0x3f20, lsl #16
   60270:	f2a7e405 	movk	x5, #0x3f20, lsl #16
   60274:	d503201f 	nop
   60278:	1ac32401 	lsr	w1, w0, w3
   6027c:	12000c21 	and	w1, w1, #0xf
   60280:	7100243f 	cmp	w1, #0x9
   60284:	1a8680e4 	csel	w4, w7, w6, hi  // hi = pmore
   60288:	0b010084 	add	w4, w4, w1
   6028c:	d503201f 	nop
   60290:	d503201f 	nop
   60294:	b9400041 	ldr	w1, [x2]
   60298:	372fffc1 	tbnz	w1, #5, 60290 <uart_hex+0x38>
   6029c:	b90000a4 	str	w4, [x5]
   602a0:	51001063 	sub	w3, w3, #0x4
   602a4:	3100107f 	cmn	w3, #0x4
   602a8:	54fffe81 	b.ne	60278 <uart_hex+0x20>  // b.any
   602ac:	d65f03c0 	ret

00000000000602b0 <main>:
   602b0:	a9be7bfd 	stp	x29, x30, [sp, #-32]!
   602b4:	910003fd 	mov	x29, sp
   602b8:	a90153f3 	stp	x19, x20, [sp, #16]
   602bc:	97ffff71 	bl	60080 <uart_init>
   602c0:	90000000 	adrp	x0, 60000 <_code>
   602c4:	910ea000 	add	x0, x0, #0x3a8
   602c8:	97ffffcc 	bl	601f8 <uart_puts>
   602cc:	97ffffc1 	bl	601d0 <uart_getc>
   602d0:	12001c13 	and	w19, w0, #0xff
   602d4:	97ffffbf 	bl	601d0 <uart_getc>
   602d8:	53181c14 	ubfiz	w20, w0, #8, #8
   602dc:	97ffffbd 	bl	601d0 <uart_getc>
   602e0:	53101c00 	ubfiz	w0, w0, #16, #8
   602e4:	0b130294 	add	w20, w20, w19
   602e8:	0b140014 	add	w20, w0, w20
   602ec:	97ffffb9 	bl	601d0 <uart_getc>
   602f0:	0b006280 	add	w0, w20, w0, lsl #24
   602f4:	7100001f 	cmp	w0, #0x0
   602f8:	5400014d 	b.le	60320 <main+0x70>
   602fc:	51000400 	sub	w0, w0, #0x1
   60300:	d2a00113 	mov	x19, #0x80000               	// #524288
   60304:	91420014 	add	x20, x0, #0x80, lsl #12
   60308:	91000694 	add	x20, x20, #0x1
   6030c:	d503201f 	nop
   60310:	97ffffb0 	bl	601d0 <uart_getc>
   60314:	38001660 	strb	w0, [x19], #1
   60318:	eb14027f 	cmp	x19, x20
   6031c:	54ffffa1 	b.ne	60310 <main+0x60>  // b.any
   60320:	aa0a03e0 	mov	x0, x10
   60324:	d2a0011e 	mov	x30, #0x80000               	// #524288
   60328:	d65f03c0 	ret
   6032c:	a94153f3 	ldp	x19, x20, [sp, #16]
   60330:	a8c27bfd 	ldp	x29, x30, [sp], #32
   60334:	d65f03c0 	ret

0000000000060338 <mbox_call>:
   60338:	90000004 	adrp	x4, 60000 <_code>
   6033c:	12000c00 	and	w0, w0, #0xf
   60340:	d2971301 	mov	x1, #0xb898                	// #47256
   60344:	f941f482 	ldr	x2, [x4, #1000]
   60348:	f2a7e001 	movk	x1, #0x3f00, lsl #16
   6034c:	2a020002 	orr	w2, w0, w2
   60350:	d503201f 	nop
   60354:	b9400020 	ldr	w0, [x1]
   60358:	37ffffc0 	tbnz	w0, #31, 60350 <mbox_call+0x18>
   6035c:	d2971400 	mov	x0, #0xb8a0                	// #47264
   60360:	d2971301 	mov	x1, #0xb898                	// #47256
   60364:	f2a7e000 	movk	x0, #0x3f00, lsl #16
   60368:	d2971003 	mov	x3, #0xb880                	// #47232
   6036c:	f2a7e001 	movk	x1, #0x3f00, lsl #16
   60370:	f2a7e003 	movk	x3, #0x3f00, lsl #16
   60374:	b9000002 	str	w2, [x0]
   60378:	d503201f 	nop
   6037c:	b9400020 	ldr	w0, [x1]
   60380:	37f7ffc0 	tbnz	w0, #30, 60378 <mbox_call+0x40>
   60384:	b9400060 	ldr	w0, [x3]
   60388:	6b02001f 	cmp	w0, w2
   6038c:	54ffff61 	b.ne	60378 <mbox_call+0x40>  // b.any
   60390:	f941f484 	ldr	x4, [x4, #1000]
   60394:	52b00000 	mov	w0, #0x80000000            	// #-2147483648
   60398:	b9400481 	ldr	w1, [x4, #4]
   6039c:	6b00003f 	cmp	w1, w0
   603a0:	1a9f17e0 	cset	w0, eq  // eq = none
   603a4:	d65f03c0 	ret
