
kernel8.elf:     file format elf64-littleaarch64


Disassembly of section .text:

0000000000080000 <_code>:
   80000:	d53800a1 	mrs	x1, mpidr_el1
   80004:	92400421 	and	x1, x1, #0x3
   80008:	b4000061 	cbz	x1, 80014 <_code+0x14>
   8000c:	d503205f 	wfe
   80010:	17ffffff 	b	8000c <_code+0xc>
   80014:	58000161 	ldr	x1, 80040 <_code+0x40>
   80018:	9100003f 	mov	sp, x1
   8001c:	58000161 	ldr	x1, 80048 <_code+0x48>
   80020:	180000e2 	ldr	w2, 8003c <_code+0x3c>
   80024:	34000082 	cbz	w2, 80034 <_code+0x34>
   80028:	f800843f 	str	xzr, [x1], #8
   8002c:	51000442 	sub	w2, w2, #0x1
   80030:	35ffffa2 	cbnz	w2, 80024 <_code+0x24>
   80034:	940002f7 	bl	80c10 <main>
   80038:	17fffff5 	b	8000c <_code+0xc>
   8003c:	00000036 	.word	0x00000036
   80040:	00080000 	.word	0x00080000
   80044:	00000000 	.word	0x00000000
   80048:	000814b0 	.word	0x000814b0
   8004c:	00000000 	.word	0x00000000

0000000000080050 <simple_alloc>:
   80050:	b0000002 	adrp	x2, 81000 <shell+0x148>
   80054:	b9445041 	ldr	w1, [x2, #1104]
   80058:	0b000020 	add	w0, w1, w0
   8005c:	b9045040 	str	w0, [x2, #1104]
   80060:	2a0103e0 	mov	w0, w1
   80064:	d65f03c0 	ret

0000000000080068 <atoi>:
   80068:	39400001 	ldrb	w1, [x0]
   8006c:	7100803f 	cmp	w1, #0x20
   80070:	7a491824 	ccmp	w1, #0x9, #0x4, ne  // ne = any
   80074:	540000a1 	b.ne	80088 <atoi+0x20>  // b.any
   80078:	38401c01 	ldrb	w1, [x0, #1]!
   8007c:	7100803f 	cmp	w1, #0x20
   80080:	7a491824 	ccmp	w1, #0x9, #0x4, ne  // ne = any
   80084:	54ffffa0 	b.eq	80078 <atoi+0x10>  // b.none
   80088:	7100b43f 	cmp	w1, #0x2d
   8008c:	52800026 	mov	w6, #0x1                   	// #1
   80090:	54000061 	b.ne	8009c <atoi+0x34>  // b.any
   80094:	91000400 	add	x0, x0, #0x1
   80098:	12800006 	mov	w6, #0xffffffff            	// #-1
   8009c:	39400001 	ldrb	w1, [x0]
   800a0:	52800005 	mov	w5, #0x0                   	// #0
   800a4:	5100c021 	sub	w1, w1, #0x30
   800a8:	12001c22 	and	w2, w1, #0xff
   800ac:	7100245f 	cmp	w2, #0x9
   800b0:	54000248 	b.hi	800f8 <atoi+0x90>  // b.pmore
   800b4:	39400403 	ldrb	w3, [x0, #1]
   800b8:	91000402 	add	x2, x0, #0x1
   800bc:	340001c3 	cbz	w3, 800f4 <atoi+0x8c>
   800c0:	5100c064 	sub	w4, w3, #0x30
   800c4:	12001c80 	and	w0, w4, #0xff
   800c8:	7100241f 	cmp	w0, #0x9
   800cc:	54000089 	b.ls	800dc <atoi+0x74>  // b.plast
   800d0:	1400000a 	b	800f8 <atoi+0x90>
   800d4:	7100241f 	cmp	w0, #0x9
   800d8:	54000148 	b.hi	80100 <atoi+0x98>  // b.pmore
   800dc:	38401c43 	ldrb	w3, [x2, #1]!
   800e0:	0b010821 	add	w1, w1, w1, lsl #2
   800e4:	0b010481 	add	w1, w4, w1, lsl #1
   800e8:	5100c064 	sub	w4, w3, #0x30
   800ec:	12001c80 	and	w0, w4, #0xff
   800f0:	35ffff23 	cbnz	w3, 800d4 <atoi+0x6c>
   800f4:	1b017cc5 	mul	w5, w6, w1
   800f8:	2a0503e0 	mov	w0, w5
   800fc:	d65f03c0 	ret
   80100:	52800005 	mov	w5, #0x0                   	// #0
   80104:	2a0503e0 	mov	w0, w5
   80108:	d65f03c0 	ret
   8010c:	d503201f 	nop

0000000000080110 <exit>:
   80110:	a9bf7bfd 	stp	x29, x30, [sp, #-16]!
   80114:	b0000000 	adrp	x0, 81000 <shell+0x148>
   80118:	9104a000 	add	x0, x0, #0x128
   8011c:	910003fd 	mov	x29, sp
   80120:	94000144 	bl	80630 <uart_puts>
   80124:	14000000 	b	80124 <exit+0x14>

0000000000080128 <read_dtb32>:
   80128:	f9400001 	ldr	x1, [x0]
   8012c:	91001022 	add	x2, x1, #0x4
   80130:	f9000002 	str	x2, [x0]
   80134:	b9400020 	ldr	w0, [x1]
   80138:	5ac00800 	rev	w0, w0
   8013c:	d65f03c0 	ret

0000000000080140 <print_height>:
   80140:	7100001f 	cmp	w0, #0x0
   80144:	540001cd 	b.le	8017c <print_height+0x3c>
   80148:	a9be7bfd 	stp	x29, x30, [sp, #-32]!
   8014c:	910003fd 	mov	x29, sp
   80150:	a90153f3 	stp	x19, x20, [sp, #16]
   80154:	b0000014 	adrp	x20, 81000 <shell+0x148>
   80158:	2a0003f3 	mov	w19, w0
   8015c:	9104c294 	add	x20, x20, #0x130
   80160:	aa1403e0 	mov	x0, x20
   80164:	94000133 	bl	80630 <uart_puts>
   80168:	71000673 	subs	w19, w19, #0x1
   8016c:	54ffffa1 	b.ne	80160 <print_height+0x20>  // b.any
   80170:	a94153f3 	ldp	x19, x20, [sp, #16]
   80174:	a8c27bfd 	ldp	x29, x30, [sp], #32
   80178:	d65f03c0 	ret
   8017c:	d65f03c0 	ret

0000000000080180 <print_prop_value>:
   80180:	7100003f 	cmp	w1, #0x0
   80184:	540007cd 	b.le	8027c <print_prop_value+0xfc>
   80188:	a9bd7bfd 	stp	x29, x30, [sp, #-48]!
   8018c:	51000426 	sub	w6, w1, #0x1
   80190:	aa0003e3 	mov	x3, x0
   80194:	910003fd 	mov	x29, sp
   80198:	a90153f3 	stp	x19, x20, [sp, #16]
   8019c:	91000413 	add	x19, x0, #0x1
   801a0:	8b060266 	add	x6, x19, x6
   801a4:	52800005 	mov	w5, #0x0                   	// #0
   801a8:	52800027 	mov	w7, #0x1                   	// #1
   801ac:	d503201f 	nop
   801b0:	38401464 	ldrb	w4, [x3], #1
   801b4:	51008082 	sub	w2, w4, #0x20
   801b8:	12001c42 	and	w2, w2, #0xff
   801bc:	7101785f 	cmp	w2, #0x5e
   801c0:	7a408884 	ccmp	w4, #0x0, #0x4, hi  // hi = pmore
   801c4:	1a8700a5 	csel	w5, w5, w7, eq  // eq = none
   801c8:	eb0300df 	cmp	x6, x3
   801cc:	54ffff21 	b.ne	801b0 <print_prop_value+0x30>  // b.any
   801d0:	34000105 	cbz	w5, 801f0 <print_prop_value+0x70>
   801d4:	7100103f 	cmp	w1, #0x4
   801d8:	54000400 	b.eq	80258 <print_prop_value+0xd8>  // b.none
   801dc:	a94153f3 	ldp	x19, x20, [sp, #16]
   801e0:	b0000000 	adrp	x0, 81000 <shell+0x148>
   801e4:	a8c37bfd 	ldp	x29, x30, [sp], #48
   801e8:	91050000 	add	x0, x0, #0x140
   801ec:	14000111 	b	80630 <uart_puts>
   801f0:	7100043f 	cmp	w1, #0x1
   801f4:	540002c0 	b.eq	8024c <print_prop_value+0xcc>  // b.none
   801f8:	51000834 	sub	w20, w1, #0x2
   801fc:	f90013f5 	str	x21, [sp, #32]
   80200:	91000694 	add	x20, x20, #0x1
   80204:	b0000015 	adrp	x21, 81000 <shell+0x148>
   80208:	8b140014 	add	x20, x0, x20
   8020c:	910522b5 	add	x21, x21, #0x148
   80210:	14000006 	b	80228 <print_prop_value+0xa8>
   80214:	94000107 	bl	80630 <uart_puts>
   80218:	eb14027f 	cmp	x19, x20
   8021c:	aa1303e0 	mov	x0, x19
   80220:	54000140 	b.eq	80248 <print_prop_value+0xc8>  // b.none
   80224:	91000673 	add	x19, x19, #0x1
   80228:	39400001 	ldrb	w1, [x0]
   8022c:	aa1503e0 	mov	x0, x21
   80230:	34ffff21 	cbz	w1, 80214 <print_prop_value+0x94>
   80234:	2a0103e0 	mov	w0, w1
   80238:	940000ea 	bl	805e0 <uart_send>
   8023c:	eb14027f 	cmp	x19, x20
   80240:	aa1303e0 	mov	x0, x19
   80244:	54ffff01 	b.ne	80224 <print_prop_value+0xa4>  // b.any
   80248:	f94013f5 	ldr	x21, [sp, #32]
   8024c:	a94153f3 	ldp	x19, x20, [sp, #16]
   80250:	a8c37bfd 	ldp	x29, x30, [sp], #48
   80254:	d65f03c0 	ret
   80258:	b9400013 	ldr	w19, [x0]
   8025c:	b0000000 	adrp	x0, 81000 <shell+0x148>
   80260:	9104e000 	add	x0, x0, #0x138
   80264:	940000f3 	bl	80630 <uart_puts>
   80268:	5ac00a73 	rev	w19, w19
   8026c:	2a1303e0 	mov	w0, w19
   80270:	a94153f3 	ldp	x19, x20, [sp, #16]
   80274:	a8c37bfd 	ldp	x29, x30, [sp], #48
   80278:	14000106 	b	80690 <uart_hex>
   8027c:	d65f03c0 	ret

0000000000080280 <big2little>:
   80280:	b9400001 	ldr	w1, [x0]
   80284:	5ac00821 	rev	w1, w1
   80288:	b9000001 	str	w1, [x0]
   8028c:	d65f03c0 	ret

0000000000080290 <read_fdt_header>:
   80290:	a9be7bfd 	stp	x29, x30, [sp, #-32]!
   80294:	d2800502 	mov	x2, #0x28                  	// #40
   80298:	910003fd 	mov	x29, sp
   8029c:	f9000bf3 	str	x19, [sp, #16]
   802a0:	aa0003f3 	mov	x19, x0
   802a4:	94000149 	bl	807c8 <memcpy>
   802a8:	9100a261 	add	x1, x19, #0x28
   802ac:	d503201f 	nop
   802b0:	b9400260 	ldr	w0, [x19]
   802b4:	5ac00800 	rev	w0, w0
   802b8:	b8004660 	str	w0, [x19], #4
   802bc:	eb01027f 	cmp	x19, x1
   802c0:	54ffff81 	b.ne	802b0 <read_fdt_header+0x20>  // b.any
   802c4:	f9400bf3 	ldr	x19, [sp, #16]
   802c8:	a8c27bfd 	ldp	x29, x30, [sp], #32
   802cc:	d65f03c0 	ret

00000000000802d0 <dtb_parse>:
   802d0:	a9b67bfd 	stp	x29, x30, [sp, #-160]!
   802d4:	910003fd 	mov	x29, sp
   802d8:	a90153f3 	stp	x19, x20, [sp, #16]
   802dc:	b0000014 	adrp	x20, 81000 <shell+0x148>
   802e0:	52800013 	mov	w19, #0x0                   	// #0
   802e4:	f9424694 	ldr	x20, [x20, #1160]
   802e8:	a9025bf5 	stp	x21, x22, [sp, #32]
   802ec:	aa0003f6 	mov	x22, x0
   802f0:	9101e3e0 	add	x0, sp, #0x78
   802f4:	a90363f7 	stp	x23, x24, [sp, #48]
   802f8:	b0000018 	adrp	x24, 81000 <shell+0x148>
   802fc:	f9400281 	ldr	x1, [x20]
   80300:	a9046bf9 	stp	x25, x26, [sp, #64]
   80304:	9105e318 	add	x24, x24, #0x178
   80308:	a90573fb 	stp	x27, x28, [sp, #80]
   8030c:	b0000019 	adrp	x25, 81000 <shell+0x148>
   80310:	97ffffe0 	bl	80290 <read_fdt_header>
   80314:	295007e0 	ldp	w0, w1, [sp, #128]
   80318:	91058339 	add	x25, x25, #0x160
   8031c:	f940029a 	ldr	x26, [x20]
   80320:	f90037e1 	str	x1, [sp, #104]
   80324:	8b000340 	add	x0, x26, x0
   80328:	aa0003f4 	mov	x20, x0
   8032c:	b840469b 	ldr	w27, [x20], #4
   80330:	5ac00b7b 	rev	w27, w27
   80334:	7100077f 	cmp	w27, #0x1
   80338:	54000300 	b.eq	80398 <dtb_parse+0xc8>  // b.none
   8033c:	71000b7f 	cmp	w27, #0x2
   80340:	540003c0 	b.eq	803b8 <dtb_parse+0xe8>  // b.none
   80344:	71000f7f 	cmp	w27, #0x3
   80348:	540003e0 	b.eq	803c4 <dtb_parse+0xf4>  // b.none
   8034c:	7100137f 	cmp	w27, #0x4
   80350:	540005a0 	b.eq	80404 <dtb_parse+0x134>  // b.none
   80354:	7100277f 	cmp	w27, #0x9
   80358:	54000780 	b.eq	80448 <dtb_parse+0x178>  // b.none
   8035c:	aa1903e0 	mov	x0, x25
   80360:	940000b4 	bl	80630 <uart_puts>
   80364:	2a1b03e0 	mov	w0, w27
   80368:	940000ca 	bl	80690 <uart_hex>
   8036c:	aa1803e0 	mov	x0, x24
   80370:	940000b0 	bl	80630 <uart_puts>
   80374:	2a1403e0 	mov	w0, w20
   80378:	940000c6 	bl	80690 <uart_hex>
   8037c:	97ffff65 	bl	80110 <exit>
   80380:	aa1403e0 	mov	x0, x20
   80384:	aa0003f4 	mov	x20, x0
   80388:	b840469b 	ldr	w27, [x20], #4
   8038c:	5ac00b7b 	rev	w27, w27
   80390:	7100077f 	cmp	w27, #0x1
   80394:	54fffd41 	b.ne	8033c <dtb_parse+0x6c>  // b.any
   80398:	11000673 	add	w19, w19, #0x1
   8039c:	b4000396 	cbz	x22, 8040c <dtb_parse+0x13c>
   803a0:	aa1403e0 	mov	x0, x20
   803a4:	94000177 	bl	80980 <strlen>
   803a8:	0b140000 	add	w0, w0, w20
   803ac:	11001000 	add	w0, w0, #0x4
   803b0:	927e7400 	and	x0, x0, #0xfffffffc
   803b4:	17ffffdd 	b	80328 <dtb_parse+0x58>
   803b8:	51000673 	sub	w19, w19, #0x1
   803bc:	aa1403e0 	mov	x0, x20
   803c0:	17ffffda 	b	80328 <dtb_parse+0x58>
   803c4:	2940d015 	ldp	w21, w20, [x0, #4]
   803c8:	91003017 	add	x23, x0, #0xc
   803cc:	f94037e1 	ldr	x1, [sp, #104]
   803d0:	5ac00a94 	rev	w20, w20
   803d4:	5ac00ab5 	rev	w21, w21
   803d8:	8b010294 	add	x20, x20, x1
   803dc:	8b140354 	add	x20, x26, x20
   803e0:	b4000436 	cbz	x22, 80464 <dtb_parse+0x194>
   803e4:	b9400c01 	ldr	w1, [x0, #12]
   803e8:	aa1403e0 	mov	x0, x20
   803ec:	5ac00821 	rev	w1, w1
   803f0:	d63f02c0 	blr	x22
   803f4:	8b3542e0 	add	x0, x23, w21, uxtw
   803f8:	11000c00 	add	w0, w0, #0x3
   803fc:	927e7400 	and	x0, x0, #0xfffffffc
   80400:	17ffffca 	b	80328 <dtb_parse+0x58>
   80404:	aa1403e0 	mov	x0, x20
   80408:	17ffffc8 	b	80328 <dtb_parse+0x58>
   8040c:	b0000000 	adrp	x0, 81000 <shell+0x148>
   80410:	7100027f 	cmp	w19, #0x0
   80414:	2a1303f5 	mov	w21, w19
   80418:	9104c017 	add	x23, x0, #0x130
   8041c:	540000ad 	b.le	80430 <dtb_parse+0x160>
   80420:	aa1703e0 	mov	x0, x23
   80424:	94000083 	bl	80630 <uart_puts>
   80428:	710006b5 	subs	w21, w21, #0x1
   8042c:	54ffffa1 	b.ne	80420 <dtb_parse+0x150>  // b.any
   80430:	aa1403e0 	mov	x0, x20
   80434:	9400007f 	bl	80630 <uart_puts>
   80438:	b0000000 	adrp	x0, 81000 <shell+0x148>
   8043c:	910c8000 	add	x0, x0, #0x320
   80440:	9400007c 	bl	80630 <uart_puts>
   80444:	17ffffd7 	b	803a0 <dtb_parse+0xd0>
   80448:	a94153f3 	ldp	x19, x20, [sp, #16]
   8044c:	a9425bf5 	ldp	x21, x22, [sp, #32]
   80450:	a94363f7 	ldp	x23, x24, [sp, #48]
   80454:	a9446bf9 	ldp	x25, x26, [sp, #64]
   80458:	a94573fb 	ldp	x27, x28, [sp, #80]
   8045c:	a8ca7bfd 	ldp	x29, x30, [sp], #160
   80460:	d65f03c0 	ret
   80464:	1100067c 	add	w28, w19, #0x1
   80468:	b0000000 	adrp	x0, 81000 <shell+0x148>
   8046c:	7100039f 	cmp	w28, #0x0
   80470:	9104c01b 	add	x27, x0, #0x130
   80474:	540000ad 	b.le	80488 <dtb_parse+0x1b8>
   80478:	aa1b03e0 	mov	x0, x27
   8047c:	9400006d 	bl	80630 <uart_puts>
   80480:	7100079c 	subs	w28, w28, #0x1
   80484:	54ffffa1 	b.ne	80478 <dtb_parse+0x1a8>  // b.any
   80488:	aa1403e0 	mov	x0, x20
   8048c:	94000069 	bl	80630 <uart_puts>
   80490:	b0000000 	adrp	x0, 81000 <shell+0x148>
   80494:	91054000 	add	x0, x0, #0x150
   80498:	94000066 	bl	80630 <uart_puts>
   8049c:	2a1503e1 	mov	w1, w21
   804a0:	aa1703e0 	mov	x0, x23
   804a4:	97ffff37 	bl	80180 <print_prop_value>
   804a8:	b0000000 	adrp	x0, 81000 <shell+0x148>
   804ac:	91056000 	add	x0, x0, #0x158
   804b0:	94000060 	bl	80630 <uart_puts>
   804b4:	17ffffd0 	b	803f4 <dtb_parse+0x124>

00000000000804b8 <uart_init>:
   804b8:	a9be7bfd 	stp	x29, x30, [sp, #-32]!
   804bc:	d2820600 	mov	x0, #0x1030                	// #4144
   804c0:	f2a7e400 	movk	x0, #0x3f20, lsl #16
   804c4:	910003fd 	mov	x29, sp
   804c8:	d2800082 	mov	x2, #0x4                   	// #4
   804cc:	f9000bf3 	str	x19, [sp, #16]
   804d0:	f2a7e402 	movk	x2, #0x3f20, lsl #16
   804d4:	b900001f 	str	wzr, [x0]
   804d8:	d2801283 	mov	x3, #0x94                  	// #148
   804dc:	52880004 	mov	w4, #0x4000                	// #16384
   804e0:	b9400041 	ldr	w1, [x2]
   804e4:	f2a7e403 	movk	x3, #0x3f20, lsl #16
   804e8:	72a00044 	movk	w4, #0x2, lsl #16
   804ec:	528012c0 	mov	w0, #0x96                  	// #150
   804f0:	120e6421 	and	w1, w1, #0xfffc0fff
   804f4:	2a040021 	orr	w1, w1, w4
   804f8:	b9000041 	str	w1, [x2]
   804fc:	b900007f 	str	wzr, [x3]
   80500:	d503201f 	nop
   80504:	71000400 	subs	w0, w0, #0x1
   80508:	54ffffc1 	b.ne	80500 <uart_init+0x48>  // b.any
   8050c:	d2801301 	mov	x1, #0x98                  	// #152
   80510:	52980002 	mov	w2, #0xc000                	// #49152
   80514:	f2a7e401 	movk	x1, #0x3f20, lsl #16
   80518:	528012c0 	mov	w0, #0x96                  	// #150
   8051c:	b9000022 	str	w2, [x1]
   80520:	d503201f 	nop
   80524:	71000400 	subs	w0, w0, #0x1
   80528:	54ffffc1 	b.ne	80520 <uart_init+0x68>  // b.any
   8052c:	b0000001 	adrp	x1, 81000 <shell+0x148>
   80530:	d2801302 	mov	x2, #0x98                  	// #152
   80534:	f2a7e402 	movk	x2, #0x3f20, lsl #16
   80538:	52800480 	mov	w0, #0x24                  	// #36
   8053c:	f9423421 	ldr	x1, [x1, #1128]
   80540:	b900005f 	str	wzr, [x2]
   80544:	52900045 	mov	w5, #0x8002                	// #32770
   80548:	52800184 	mov	w4, #0xc                   	// #12
   8054c:	72a00065 	movk	w5, #0x3, lsl #16
   80550:	52800102 	mov	w2, #0x8                   	// #8
   80554:	b9000020 	str	w0, [x1]
   80558:	52800053 	mov	w19, #0x2                   	// #2
   8055c:	b900043f 	str	wzr, [x1, #4]
   80560:	52812003 	mov	w3, #0x900                 	// #2304
   80564:	b9000825 	str	w5, [x1, #8]
   80568:	72a007a3 	movk	w3, #0x3d, lsl #16
   8056c:	b9000c24 	str	w4, [x1, #12]
   80570:	2a0203e0 	mov	w0, w2
   80574:	b9001022 	str	w2, [x1, #16]
   80578:	b9001433 	str	w19, [x1, #20]
   8057c:	b9001823 	str	w3, [x1, #24]
   80580:	b9001c3f 	str	wzr, [x1, #28]
   80584:	b900203f 	str	wzr, [x1, #32]
   80588:	940002cc 	bl	810b8 <mbox_call>
   8058c:	d2820881 	mov	x1, #0x1044                	// #4164
   80590:	d2820480 	mov	x0, #0x1024                	// #4132
   80594:	f2a7e401 	movk	x1, #0x3f20, lsl #16
   80598:	f2a7e400 	movk	x0, #0x3f20, lsl #16
   8059c:	d2820502 	mov	x2, #0x1028                	// #4136
   805a0:	5280ffe3 	mov	w3, #0x7ff                 	// #2047
   805a4:	f2a7e402 	movk	x2, #0x3f20, lsl #16
   805a8:	b9000023 	str	w3, [x1]
   805ac:	d2820581 	mov	x1, #0x102c                	// #4140
   805b0:	b9000013 	str	w19, [x0]
   805b4:	f2a7e401 	movk	x1, #0x3f20, lsl #16
   805b8:	52800163 	mov	w3, #0xb                   	// #11
   805bc:	f9400bf3 	ldr	x19, [sp, #16]
   805c0:	b9000043 	str	w3, [x2]
   805c4:	52800e02 	mov	w2, #0x70                  	// #112
   805c8:	b9000022 	str	w2, [x1]
   805cc:	52806021 	mov	w1, #0x301                 	// #769
   805d0:	b9000c01 	str	w1, [x0, #12]
   805d4:	a8c27bfd 	ldp	x29, x30, [sp], #32
   805d8:	d65f03c0 	ret
   805dc:	d503201f 	nop

00000000000805e0 <uart_send>:
   805e0:	d2820302 	mov	x2, #0x1018                	// #4120
   805e4:	f2a7e402 	movk	x2, #0x3f20, lsl #16
   805e8:	d503201f 	nop
   805ec:	b9400041 	ldr	w1, [x2]
   805f0:	372fffc1 	tbnz	w1, #5, 805e8 <uart_send+0x8>
   805f4:	d2820001 	mov	x1, #0x1000                	// #4096
   805f8:	f2a7e401 	movk	x1, #0x3f20, lsl #16
   805fc:	b9000020 	str	w0, [x1]
   80600:	d65f03c0 	ret
   80604:	d503201f 	nop

0000000000080608 <uart_getc>:
   80608:	d2820301 	mov	x1, #0x1018                	// #4120
   8060c:	f2a7e401 	movk	x1, #0x3f20, lsl #16
   80610:	d503201f 	nop
   80614:	b9400020 	ldr	w0, [x1]
   80618:	3727ffc0 	tbnz	w0, #4, 80610 <uart_getc+0x8>
   8061c:	d2820000 	mov	x0, #0x1000                	// #4096
   80620:	f2a7e400 	movk	x0, #0x3f20, lsl #16
   80624:	b9400000 	ldr	w0, [x0]
   80628:	d65f03c0 	ret
   8062c:	d503201f 	nop

0000000000080630 <uart_puts>:
   80630:	39400001 	ldrb	w1, [x0]
   80634:	34000221 	cbz	w1, 80678 <uart_puts+0x48>
   80638:	d2820302 	mov	x2, #0x1018                	// #4120
   8063c:	d2820004 	mov	x4, #0x1000                	// #4096
   80640:	f2a7e402 	movk	x2, #0x3f20, lsl #16
   80644:	f2a7e404 	movk	x4, #0x3f20, lsl #16
   80648:	528001a5 	mov	w5, #0xd                   	// #13
   8064c:	d503201f 	nop
   80650:	7100283f 	cmp	w1, #0xa
   80654:	54000140 	b.eq	8067c <uart_puts+0x4c>  // b.none
   80658:	38401403 	ldrb	w3, [x0], #1
   8065c:	d503201f 	nop
   80660:	d503201f 	nop
   80664:	b9400041 	ldr	w1, [x2]
   80668:	372fffc1 	tbnz	w1, #5, 80660 <uart_puts+0x30>
   8066c:	b9000083 	str	w3, [x4]
   80670:	39400001 	ldrb	w1, [x0]
   80674:	35fffee1 	cbnz	w1, 80650 <uart_puts+0x20>
   80678:	d65f03c0 	ret
   8067c:	d503201f 	nop
   80680:	b9400041 	ldr	w1, [x2]
   80684:	372fffc1 	tbnz	w1, #5, 8067c <uart_puts+0x4c>
   80688:	b9000085 	str	w5, [x4]
   8068c:	17fffff3 	b	80658 <uart_puts+0x28>

0000000000080690 <uart_hex>:
   80690:	d2820302 	mov	x2, #0x1018                	// #4120
   80694:	d2820005 	mov	x5, #0x1000                	// #4096
   80698:	52800383 	mov	w3, #0x1c                  	// #28
   8069c:	528006e7 	mov	w7, #0x37                  	// #55
   806a0:	52800606 	mov	w6, #0x30                  	// #48
   806a4:	f2a7e402 	movk	x2, #0x3f20, lsl #16
   806a8:	f2a7e405 	movk	x5, #0x3f20, lsl #16
   806ac:	d503201f 	nop
   806b0:	1ac32401 	lsr	w1, w0, w3
   806b4:	12000c21 	and	w1, w1, #0xf
   806b8:	7100243f 	cmp	w1, #0x9
   806bc:	1a8680e4 	csel	w4, w7, w6, hi  // hi = pmore
   806c0:	0b010084 	add	w4, w4, w1
   806c4:	d503201f 	nop
   806c8:	d503201f 	nop
   806cc:	b9400041 	ldr	w1, [x2]
   806d0:	372fffc1 	tbnz	w1, #5, 806c8 <uart_hex+0x38>
   806d4:	b90000a4 	str	w4, [x5]
   806d8:	51001063 	sub	w3, w3, #0x4
   806dc:	3100107f 	cmn	w3, #0x4
   806e0:	54fffe81 	b.ne	806b0 <uart_hex+0x20>  // b.any
   806e4:	d65f03c0 	ret

00000000000806e8 <uart_dec>:
   806e8:	7100001f 	cmp	w0, #0x0
   806ec:	540005a0 	b.eq	807a0 <uart_dec+0xb8>  // b.none
   806f0:	5400042b 	b.lt	80774 <uart_dec+0x8c>  // b.tstop
   806f4:	52994002 	mov	w2, #0xca00                	// #51712
   806f8:	529999a6 	mov	w6, #0xcccd                	// #52429
   806fc:	d2820304 	mov	x4, #0x1018                	// #4120
   80700:	d2820008 	mov	x8, #0x1000                	// #4096
   80704:	52800143 	mov	w3, #0xa                   	// #10
   80708:	52800027 	mov	w7, #0x1                   	// #1
   8070c:	72a77342 	movk	w2, #0x3b9a, lsl #16
   80710:	72b99986 	movk	w6, #0xcccc, lsl #16
   80714:	f2a7e404 	movk	x4, #0x3f20, lsl #16
   80718:	f2a7e408 	movk	x8, #0x3f20, lsl #16
   8071c:	d503201f 	nop
   80720:	9ba67c41 	umull	x1, w2, w6
   80724:	6b02001f 	cmp	w0, w2
   80728:	2a0003e5 	mov	w5, w0
   8072c:	d363fc21 	lsr	x1, x1, #35
   80730:	540001e3 	b.cc	8076c <uart_dec+0x84>  // b.lo, b.ul, b.last
   80734:	1ac20807 	udiv	w7, w0, w2
   80738:	1b0280e0 	msub	w0, w7, w2, w0
   8073c:	1ac208a5 	udiv	w5, w5, w2
   80740:	1100c0a5 	add	w5, w5, #0x30
   80744:	d503201f 	nop
   80748:	d503201f 	nop
   8074c:	b9400082 	ldr	w2, [x4]
   80750:	372fffc2 	tbnz	w2, #5, 80748 <uart_dec+0x60>
   80754:	52800007 	mov	w7, #0x0                   	// #0
   80758:	b9000105 	str	w5, [x8]
   8075c:	2a0103e2 	mov	w2, w1
   80760:	71000463 	subs	w3, w3, #0x1
   80764:	54fffde1 	b.ne	80720 <uart_dec+0x38>  // b.any
   80768:	d65f03c0 	ret
   8076c:	35ffff87 	cbnz	w7, 8075c <uart_dec+0x74>
   80770:	17fffff3 	b	8073c <uart_dec+0x54>
   80774:	d2820302 	mov	x2, #0x1018                	// #4120
   80778:	4b0003e0 	neg	w0, w0
   8077c:	f2a7e402 	movk	x2, #0x3f20, lsl #16
   80780:	d503201f 	nop
   80784:	b9400041 	ldr	w1, [x2]
   80788:	372fffc1 	tbnz	w1, #5, 80780 <uart_dec+0x98>
   8078c:	d2820001 	mov	x1, #0x1000                	// #4096
   80790:	528005a2 	mov	w2, #0x2d                  	// #45
   80794:	f2a7e401 	movk	x1, #0x3f20, lsl #16
   80798:	b9000022 	str	w2, [x1]
   8079c:	17ffffd6 	b	806f4 <uart_dec+0xc>
   807a0:	d2820301 	mov	x1, #0x1018                	// #4120
   807a4:	f2a7e401 	movk	x1, #0x3f20, lsl #16
   807a8:	d503201f 	nop
   807ac:	b9400020 	ldr	w0, [x1]
   807b0:	372fffc0 	tbnz	w0, #5, 807a8 <uart_dec+0xc0>
   807b4:	d2820000 	mov	x0, #0x1000                	// #4096
   807b8:	52800601 	mov	w1, #0x30                  	// #48
   807bc:	f2a7e400 	movk	x0, #0x3f20, lsl #16
   807c0:	b9000001 	str	w1, [x0]
   807c4:	d65f03c0 	ret

00000000000807c8 <memcpy>:
   807c8:	b40000e2 	cbz	x2, 807e4 <memcpy+0x1c>
   807cc:	d2800003 	mov	x3, #0x0                   	// #0
   807d0:	38636824 	ldrb	w4, [x1, x3]
   807d4:	38236804 	strb	w4, [x0, x3]
   807d8:	91000463 	add	x3, x3, #0x1
   807dc:	eb03005f 	cmp	x2, x3
   807e0:	54ffff81 	b.ne	807d0 <memcpy+0x8>  // b.any
   807e4:	d65f03c0 	ret

00000000000807e8 <strncmp>:
   807e8:	d1000442 	sub	x2, x2, #0x1
   807ec:	d2800003 	mov	x3, #0x0                   	// #0
   807f0:	38636805 	ldrb	w5, [x0, x3]
   807f4:	38636824 	ldrb	w4, [x1, x3]
   807f8:	6b0400bf 	cmp	w5, w4
   807fc:	54000121 	b.ne	80820 <strncmp+0x38>  // b.any
   80800:	eb03005f 	cmp	x2, x3
   80804:	91000463 	add	x3, x3, #0x1
   80808:	1a9f07e4 	cset	w4, ne  // ne = any
   8080c:	710000bf 	cmp	w5, #0x0
   80810:	1a9f1084 	csel	w4, w4, wzr, ne  // ne = any
   80814:	35fffee4 	cbnz	w4, 807f0 <strncmp+0x8>
   80818:	52800000 	mov	w0, #0x0                   	// #0
   8081c:	d65f03c0 	ret
   80820:	52800020 	mov	w0, #0x1                   	// #1
   80824:	5a802400 	cneg	w0, w0, cc  // cc = lo, ul, last
   80828:	d65f03c0 	ret
   8082c:	d503201f 	nop

0000000000080830 <strcmp>:
   80830:	d2800002 	mov	x2, #0x0                   	// #0
   80834:	14000002 	b	8083c <strcmp+0xc>
   80838:	34000123 	cbz	w3, 8085c <strcmp+0x2c>
   8083c:	38626803 	ldrb	w3, [x0, x2]
   80840:	38626824 	ldrb	w4, [x1, x2]
   80844:	91000442 	add	x2, x2, #0x1
   80848:	6b04007f 	cmp	w3, w4
   8084c:	54ffff60 	b.eq	80838 <strcmp+0x8>  // b.none
   80850:	52800020 	mov	w0, #0x1                   	// #1
   80854:	5a802400 	cneg	w0, w0, cc  // cc = lo, ul, last
   80858:	d65f03c0 	ret
   8085c:	52800000 	mov	w0, #0x0                   	// #0
   80860:	d65f03c0 	ret
   80864:	d503201f 	nop

0000000000080868 <strcat>:
   80868:	39400002 	ldrb	w2, [x0]
   8086c:	34000182 	cbz	w2, 8089c <strcat+0x34>
   80870:	aa0003e2 	mov	x2, x0
   80874:	d503201f 	nop
   80878:	38401c43 	ldrb	w3, [x2, #1]!
   8087c:	35ffffe3 	cbnz	w3, 80878 <strcat+0x10>
   80880:	39400023 	ldrb	w3, [x1]
   80884:	34000083 	cbz	w3, 80894 <strcat+0x2c>
   80888:	38001443 	strb	w3, [x2], #1
   8088c:	38401c23 	ldrb	w3, [x1, #1]!
   80890:	35ffffc3 	cbnz	w3, 80888 <strcat+0x20>
   80894:	3900005f 	strb	wzr, [x2]
   80898:	d65f03c0 	ret
   8089c:	aa0003e2 	mov	x2, x0
   808a0:	17fffff8 	b	80880 <strcat+0x18>
   808a4:	d503201f 	nop

00000000000808a8 <strtok>:
   808a8:	12001c21 	and	w1, w1, #0xff
   808ac:	b0000004 	adrp	x4, 81000 <shell+0x148>
   808b0:	b4000560 	cbz	x0, 8095c <strtok+0xb4>
   808b4:	f9423882 	ldr	x2, [x4, #1136]
   808b8:	f9000040 	str	x0, [x2]
   808bc:	39400002 	ldrb	w2, [x0]
   808c0:	34000482 	cbz	w2, 80950 <strtok+0xa8>
   808c4:	aa0003e5 	mov	x5, x0
   808c8:	6b01005f 	cmp	w2, w1
   808cc:	54000200 	b.eq	8090c <strtok+0x64>  // b.none
   808d0:	f9423884 	ldr	x4, [x4, #1136]
   808d4:	91000403 	add	x3, x0, #0x1
   808d8:	f9000083 	str	x3, [x4]
   808dc:	39400402 	ldrb	w2, [x0, #1]
   808e0:	6b02003f 	cmp	w1, w2
   808e4:	34000102 	cbz	w2, 80904 <strtok+0x5c>
   808e8:	54000400 	b.eq	80968 <strtok+0xc0>  // b.none
   808ec:	aa0303e0 	mov	x0, x3
   808f0:	91000403 	add	x3, x0, #0x1
   808f4:	f9000083 	str	x3, [x4]
   808f8:	39400402 	ldrb	w2, [x0, #1]
   808fc:	6b02003f 	cmp	w1, w2
   80900:	35ffff42 	cbnz	w2, 808e8 <strtok+0x40>
   80904:	aa0503e0 	mov	x0, x5
   80908:	d65f03c0 	ret
   8090c:	f9423886 	ldr	x6, [x4, #1136]
   80910:	91000402 	add	x2, x0, #0x1
   80914:	aa0203e0 	mov	x0, x2
   80918:	910004a5 	add	x5, x5, #0x1
   8091c:	f90000c2 	str	x2, [x6]
   80920:	39400043 	ldrb	w3, [x2]
   80924:	91000442 	add	x2, x2, #0x1
   80928:	6b03003f 	cmp	w1, w3
   8092c:	34000123 	cbz	w3, 80950 <strtok+0xa8>
   80930:	54fffd01 	b.ne	808d0 <strtok+0x28>  // b.any
   80934:	f90000c2 	str	x2, [x6]
   80938:	aa0203e0 	mov	x0, x2
   8093c:	910004a5 	add	x5, x5, #0x1
   80940:	91000442 	add	x2, x2, #0x1
   80944:	385ff043 	ldurb	w3, [x2, #-1]
   80948:	6b03003f 	cmp	w1, w3
   8094c:	35ffff23 	cbnz	w3, 80930 <strtok+0x88>
   80950:	d2800005 	mov	x5, #0x0                   	// #0
   80954:	aa0503e0 	mov	x0, x5
   80958:	d65f03c0 	ret
   8095c:	f9423880 	ldr	x0, [x4, #1136]
   80960:	f9400000 	ldr	x0, [x0]
   80964:	17ffffd6 	b	808bc <strtok+0x14>
   80968:	91000801 	add	x1, x0, #0x2
   8096c:	f9000081 	str	x1, [x4]
   80970:	aa0503e0 	mov	x0, x5
   80974:	3900007f 	strb	wzr, [x3]
   80978:	d65f03c0 	ret
   8097c:	d503201f 	nop

0000000000080980 <strlen>:
   80980:	39400001 	ldrb	w1, [x0]
   80984:	340000e1 	cbz	w1, 809a0 <strlen+0x20>
   80988:	aa0003e1 	mov	x1, x0
   8098c:	d503201f 	nop
   80990:	38401c22 	ldrb	w2, [x1, #1]!
   80994:	35ffffe2 	cbnz	w2, 80990 <strlen+0x10>
   80998:	cb000020 	sub	x0, x1, x0
   8099c:	d65f03c0 	ret
   809a0:	d2800000 	mov	x0, #0x0                   	// #0
   809a4:	d65f03c0 	ret

00000000000809a8 <cpio_init>:
   809a8:	a9be7bfd 	stp	x29, x30, [sp, #-32]!
   809ac:	910003fd 	mov	x29, sp
   809b0:	f9000bf3 	str	x19, [sp, #16]
   809b4:	aa0103f3 	mov	x19, x1
   809b8:	b0000001 	adrp	x1, 81000 <shell+0x148>
   809bc:	91062021 	add	x1, x1, #0x188
   809c0:	97ffff9c 	bl	80830 <strcmp>
   809c4:	35000080 	cbnz	w0, 809d4 <cpio_init+0x2c>
   809c8:	b0000000 	adrp	x0, 81000 <shell+0x148>
   809cc:	f9424000 	ldr	x0, [x0, #1152]
   809d0:	f9000013 	str	x19, [x0]
   809d4:	f9400bf3 	ldr	x19, [sp, #16]
   809d8:	a8c27bfd 	ldp	x29, x30, [sp], #32
   809dc:	d65f03c0 	ret

00000000000809e0 <cpio_read_file>:
   809e0:	f9400006 	ldr	x6, [x0]
   809e4:	52800004 	mov	w4, #0x0                   	// #0
   809e8:	910178c3 	add	x3, x6, #0x5e
   809ec:	910198c7 	add	x7, x6, #0x66
   809f0:	9101b8c8 	add	x8, x6, #0x6e
   809f4:	a9002026 	stp	x6, x8, [x1]
   809f8:	38401462 	ldrb	w2, [x3], #1
   809fc:	7100e85f 	cmp	w2, #0x3a
   80a00:	5100dc45 	sub	w5, w2, #0x37
   80a04:	5100c042 	sub	w2, w2, #0x30
   80a08:	1a853042 	csel	w2, w2, w5, cc  // cc = lo, ul, last
   80a0c:	eb0300ff 	cmp	x7, x3
   80a10:	0b041044 	add	w4, w2, w4, lsl #4
   80a14:	54ffff21 	b.ne	809f8 <cpio_read_file+0x18>  // b.any
   80a18:	8b24c103 	add	x3, x8, w4, sxtw
   80a1c:	9100d8c2 	add	x2, x6, #0x36
   80a20:	91000c63 	add	x3, x3, #0x3
   80a24:	9100f8c6 	add	x6, x6, #0x3e
   80a28:	927ef463 	and	x3, x3, #0xfffffffffffffffc
   80a2c:	52800004 	mov	w4, #0x0                   	// #0
   80a30:	f9000823 	str	x3, [x1, #16]
   80a34:	d503201f 	nop
   80a38:	38401441 	ldrb	w1, [x2], #1
   80a3c:	7100e83f 	cmp	w1, #0x3a
   80a40:	5100dc25 	sub	w5, w1, #0x37
   80a44:	5100c021 	sub	w1, w1, #0x30
   80a48:	1a853021 	csel	w1, w1, w5, cc  // cc = lo, ul, last
   80a4c:	eb0200df 	cmp	x6, x2
   80a50:	0b041024 	add	w4, w1, w4, lsl #4
   80a54:	54ffff21 	b.ne	80a38 <cpio_read_file+0x58>  // b.any
   80a58:	8b24c061 	add	x1, x3, w4, sxtw
   80a5c:	91000c21 	add	x1, x1, #0x3
   80a60:	927ef421 	and	x1, x1, #0xfffffffffffffffc
   80a64:	f9000001 	str	x1, [x0]
   80a68:	d65f03c0 	ret
   80a6c:	d503201f 	nop

0000000000080a70 <cpio_ls>:
   80a70:	a9bb7bfd 	stp	x29, x30, [sp, #-80]!
   80a74:	b0000000 	adrp	x0, 81000 <shell+0x148>
   80a78:	910003fd 	mov	x29, sp
   80a7c:	f9424000 	ldr	x0, [x0, #1152]
   80a80:	a90153f3 	stp	x19, x20, [sp, #16]
   80a84:	b0000013 	adrp	x19, 81000 <shell+0x148>
   80a88:	b0000014 	adrp	x20, 81000 <shell+0x148>
   80a8c:	91068273 	add	x19, x19, #0x1a0
   80a90:	f9400000 	ldr	x0, [x0]
   80a94:	910c8294 	add	x20, x20, #0x320
   80a98:	a9025bf5 	stp	x21, x22, [sp, #32]
   80a9c:	9100e3f6 	add	x22, sp, #0x38
   80aa0:	9100c3f5 	add	x21, sp, #0x30
   80aa4:	f9001be0 	str	x0, [sp, #48]
   80aa8:	14000005 	b	80abc <cpio_ls+0x4c>
   80aac:	f94023e0 	ldr	x0, [sp, #64]
   80ab0:	97fffee0 	bl	80630 <uart_puts>
   80ab4:	aa1403e0 	mov	x0, x20
   80ab8:	97fffede 	bl	80630 <uart_puts>
   80abc:	aa1603e1 	mov	x1, x22
   80ac0:	aa1503e0 	mov	x0, x21
   80ac4:	97ffffc7 	bl	809e0 <cpio_read_file>
   80ac8:	f94023e0 	ldr	x0, [sp, #64]
   80acc:	d2800142 	mov	x2, #0xa                   	// #10
   80ad0:	aa1303e1 	mov	x1, x19
   80ad4:	97ffff45 	bl	807e8 <strncmp>
   80ad8:	35fffea0 	cbnz	w0, 80aac <cpio_ls+0x3c>
   80adc:	a94153f3 	ldp	x19, x20, [sp, #16]
   80ae0:	a9425bf5 	ldp	x21, x22, [sp, #32]
   80ae4:	a8c57bfd 	ldp	x29, x30, [sp], #80
   80ae8:	d65f03c0 	ret
   80aec:	d503201f 	nop

0000000000080af0 <cpio_cat>:
   80af0:	a9bb7bfd 	stp	x29, x30, [sp, #-80]!
   80af4:	b0000001 	adrp	x1, 81000 <shell+0x148>
   80af8:	910003fd 	mov	x29, sp
   80afc:	f9424021 	ldr	x1, [x1, #1152]
   80b00:	a90153f3 	stp	x19, x20, [sp, #16]
   80b04:	b0000013 	adrp	x19, 81000 <shell+0x148>
   80b08:	9100c3f4 	add	x20, sp, #0x30
   80b0c:	91068273 	add	x19, x19, #0x1a0
   80b10:	a9025bf5 	stp	x21, x22, [sp, #32]
   80b14:	aa0003f6 	mov	x22, x0
   80b18:	9100e3f5 	add	x21, sp, #0x38
   80b1c:	f9400020 	ldr	x0, [x1]
   80b20:	f9001be0 	str	x0, [sp, #48]
   80b24:	d503201f 	nop
   80b28:	aa1403e0 	mov	x0, x20
   80b2c:	aa1503e1 	mov	x1, x21
   80b30:	97ffffac 	bl	809e0 <cpio_read_file>
   80b34:	a94383e5 	ldp	x5, x0, [sp, #56]
   80b38:	52800002 	mov	w2, #0x0                   	// #0
   80b3c:	910178a3 	add	x3, x5, #0x5e
   80b40:	910198a5 	add	x5, x5, #0x66
   80b44:	d503201f 	nop
   80b48:	38401461 	ldrb	w1, [x3], #1
   80b4c:	7100e83f 	cmp	w1, #0x3a
   80b50:	5100dc24 	sub	w4, w1, #0x37
   80b54:	5100c021 	sub	w1, w1, #0x30
   80b58:	1a843021 	csel	w1, w1, w4, cc  // cc = lo, ul, last
   80b5c:	eb05007f 	cmp	x3, x5
   80b60:	0b021022 	add	w2, w1, w2, lsl #4
   80b64:	54ffff21 	b.ne	80b48 <cpio_cat+0x58>  // b.any
   80b68:	93407c42 	sxtw	x2, w2
   80b6c:	aa1603e1 	mov	x1, x22
   80b70:	97ffff1e 	bl	807e8 <strncmp>
   80b74:	340001a0 	cbz	w0, 80ba8 <cpio_cat+0xb8>
   80b78:	f94023e0 	ldr	x0, [sp, #64]
   80b7c:	d2800142 	mov	x2, #0xa                   	// #10
   80b80:	aa1303e1 	mov	x1, x19
   80b84:	97ffff19 	bl	807e8 <strncmp>
   80b88:	35fffd00 	cbnz	w0, 80b28 <cpio_cat+0x38>
   80b8c:	b0000000 	adrp	x0, 81000 <shell+0x148>
   80b90:	9106c000 	add	x0, x0, #0x1b0
   80b94:	97fffea7 	bl	80630 <uart_puts>
   80b98:	a94153f3 	ldp	x19, x20, [sp, #16]
   80b9c:	a9425bf5 	ldp	x21, x22, [sp, #32]
   80ba0:	a8c57bfd 	ldp	x29, x30, [sp], #80
   80ba4:	d65f03c0 	ret
   80ba8:	f94027e0 	ldr	x0, [sp, #72]
   80bac:	97fffea1 	bl	80630 <uart_puts>
   80bb0:	a94153f3 	ldp	x19, x20, [sp, #16]
   80bb4:	a9425bf5 	ldp	x21, x22, [sp, #32]
   80bb8:	a8c57bfd 	ldp	x29, x30, [sp], #80
   80bbc:	d65f03c0 	ret

0000000000080bc0 <ascii2int>:
   80bc0:	7100003f 	cmp	w1, #0x0
   80bc4:	5400020d 	b.le	80c04 <ascii2int+0x44>
   80bc8:	91000404 	add	x4, x0, #0x1
   80bcc:	51000421 	sub	w1, w1, #0x1
   80bd0:	8b010084 	add	x4, x4, x1
   80bd4:	aa0003e2 	mov	x2, x0
   80bd8:	52800000 	mov	w0, #0x0                   	// #0
   80bdc:	d503201f 	nop
   80be0:	38401441 	ldrb	w1, [x2], #1
   80be4:	7100e83f 	cmp	w1, #0x3a
   80be8:	5100dc23 	sub	w3, w1, #0x37
   80bec:	5100c021 	sub	w1, w1, #0x30
   80bf0:	1a833021 	csel	w1, w1, w3, cc  // cc = lo, ul, last
   80bf4:	eb04005f 	cmp	x2, x4
   80bf8:	0b001020 	add	w0, w1, w0, lsl #4
   80bfc:	54ffff21 	b.ne	80be0 <ascii2int+0x20>  // b.any
   80c00:	d65f03c0 	ret
   80c04:	52800000 	mov	w0, #0x0                   	// #0
   80c08:	d65f03c0 	ret
   80c0c:	00000000 	.inst	0x00000000 ; undefined

0000000000080c10 <main>:
   80c10:	a9bf7bfd 	stp	x29, x30, [sp, #-16]!
   80c14:	b0000001 	adrp	x1, 81000 <shell+0x148>
   80c18:	910003fd 	mov	x29, sp
   80c1c:	f9424421 	ldr	x1, [x1, #1160]
   80c20:	f9000020 	str	x0, [x1]
   80c24:	97fffe25 	bl	804b8 <uart_init>
   80c28:	a8c17bfd 	ldp	x29, x30, [sp], #16
   80c2c:	140000a3 	b	80eb8 <shell>

0000000000080c30 <set>:
   80c30:	b9000001 	str	w1, [x0]
   80c34:	d65f03c0 	ret

0000000000080c38 <reset>:
   80c38:	d2800383 	mov	x3, #0x1c                  	// #28
   80c3c:	d2800482 	mov	x2, #0x24                  	// #36
   80c40:	f2a7e203 	movk	x3, #0x3f10, lsl #16
   80c44:	f2a7e202 	movk	x2, #0x3f10, lsl #16
   80c48:	52800404 	mov	w4, #0x20                  	// #32
   80c4c:	52ab4001 	mov	w1, #0x5a000000            	// #1509949440
   80c50:	72ab4004 	movk	w4, #0x5a00, lsl #16
   80c54:	b9000064 	str	w4, [x3]
   80c58:	2a010000 	orr	w0, w0, w1
   80c5c:	b9000040 	str	w0, [x2]
   80c60:	d65f03c0 	ret
   80c64:	d503201f 	nop

0000000000080c68 <cancel_reset>:
   80c68:	d2800382 	mov	x2, #0x1c                  	// #28
   80c6c:	d2800481 	mov	x1, #0x24                  	// #36
   80c70:	f2a7e202 	movk	x2, #0x3f10, lsl #16
   80c74:	f2a7e201 	movk	x1, #0x3f10, lsl #16
   80c78:	52ab4000 	mov	w0, #0x5a000000            	// #1509949440
   80c7c:	b9000040 	str	w0, [x2]
   80c80:	b9000020 	str	w0, [x1]
   80c84:	d65f03c0 	ret

0000000000080c88 <PrintHelp>:
   80c88:	a9bf7bfd 	stp	x29, x30, [sp, #-16]!
   80c8c:	b0000000 	adrp	x0, 81000 <shell+0x148>
   80c90:	91072000 	add	x0, x0, #0x1c8
   80c94:	910003fd 	mov	x29, sp
   80c98:	97fffe66 	bl	80630 <uart_puts>
   80c9c:	b0000000 	adrp	x0, 81000 <shell+0x148>
   80ca0:	9107e000 	add	x0, x0, #0x1f8
   80ca4:	97fffe63 	bl	80630 <uart_puts>
   80ca8:	b0000000 	adrp	x0, 81000 <shell+0x148>
   80cac:	9108a000 	add	x0, x0, #0x228
   80cb0:	97fffe60 	bl	80630 <uart_puts>
   80cb4:	b0000000 	adrp	x0, 81000 <shell+0x148>
   80cb8:	91096000 	add	x0, x0, #0x258
   80cbc:	97fffe5d 	bl	80630 <uart_puts>
   80cc0:	b0000000 	adrp	x0, 81000 <shell+0x148>
   80cc4:	910a0000 	add	x0, x0, #0x280
   80cc8:	97fffe5a 	bl	80630 <uart_puts>
   80ccc:	b0000000 	adrp	x0, 81000 <shell+0x148>
   80cd0:	910ae000 	add	x0, x0, #0x2b8
   80cd4:	97fffe57 	bl	80630 <uart_puts>
   80cd8:	a8c17bfd 	ldp	x29, x30, [sp], #16
   80cdc:	b0000000 	adrp	x0, 81000 <shell+0x148>
   80ce0:	910bc000 	add	x0, x0, #0x2f0
   80ce4:	17fffe53 	b	80630 <uart_puts>

0000000000080ce8 <PrintHello>:
   80ce8:	b0000000 	adrp	x0, 81000 <shell+0x148>
   80cec:	910ca000 	add	x0, x0, #0x328
   80cf0:	17fffe50 	b	80630 <uart_puts>
   80cf4:	d503201f 	nop

0000000000080cf8 <PrintInfo>:
   80cf8:	a9be7bfd 	stp	x29, x30, [sp, #-32]!
   80cfc:	52800383 	mov	w3, #0x1c                  	// #28
   80d00:	52800042 	mov	w2, #0x2                   	// #2
   80d04:	910003fd 	mov	x29, sp
   80d08:	a90153f3 	stp	x19, x20, [sp, #16]
   80d0c:	b0000013 	adrp	x19, 81000 <shell+0x148>
   80d10:	72a00022 	movk	w2, #0x1, lsl #16
   80d14:	f9423674 	ldr	x20, [x19, #1128]
   80d18:	52800081 	mov	w1, #0x4                   	// #4
   80d1c:	52800100 	mov	w0, #0x8                   	// #8
   80d20:	b9000283 	str	w3, [x20]
   80d24:	b900069f 	str	wzr, [x20, #4]
   80d28:	b9000a82 	str	w2, [x20, #8]
   80d2c:	b9000e81 	str	w1, [x20, #12]
   80d30:	b900129f 	str	wzr, [x20, #16]
   80d34:	b900169f 	str	wzr, [x20, #20]
   80d38:	b9001a9f 	str	wzr, [x20, #24]
   80d3c:	940000df 	bl	810b8 <mbox_call>
   80d40:	34000560 	cbz	w0, 80dec <PrintInfo+0xf4>
   80d44:	b0000000 	adrp	x0, 81000 <shell+0x148>
   80d48:	910ce000 	add	x0, x0, #0x338
   80d4c:	97fffe39 	bl	80630 <uart_puts>
   80d50:	b9401680 	ldr	w0, [x20, #20]
   80d54:	97fffe4f 	bl	80690 <uart_hex>
   80d58:	b0000000 	adrp	x0, 81000 <shell+0x148>
   80d5c:	910c8000 	add	x0, x0, #0x320
   80d60:	97fffe34 	bl	80630 <uart_puts>
   80d64:	f9423673 	ldr	x19, [x19, #1128]
   80d68:	52800403 	mov	w3, #0x20                  	// #32
   80d6c:	528000a2 	mov	w2, #0x5                   	// #5
   80d70:	52800101 	mov	w1, #0x8                   	// #8
   80d74:	72a00022 	movk	w2, #0x1, lsl #16
   80d78:	2a0103e0 	mov	w0, w1
   80d7c:	b9000263 	str	w3, [x19]
   80d80:	b900067f 	str	wzr, [x19, #4]
   80d84:	b9000a62 	str	w2, [x19, #8]
   80d88:	b9000e61 	str	w1, [x19, #12]
   80d8c:	b900127f 	str	wzr, [x19, #16]
   80d90:	b900167f 	str	wzr, [x19, #20]
   80d94:	b9001a7f 	str	wzr, [x19, #24]
   80d98:	b9001e7f 	str	wzr, [x19, #28]
   80d9c:	940000c7 	bl	810b8 <mbox_call>
   80da0:	340002e0 	cbz	w0, 80dfc <PrintInfo+0x104>
   80da4:	b0000000 	adrp	x0, 81000 <shell+0x148>
   80da8:	910de000 	add	x0, x0, #0x378
   80dac:	97fffe21 	bl	80630 <uart_puts>
   80db0:	b0000014 	adrp	x20, 81000 <shell+0x148>
   80db4:	b9401660 	ldr	w0, [x19, #20]
   80db8:	910c8294 	add	x20, x20, #0x320
   80dbc:	97fffe35 	bl	80690 <uart_hex>
   80dc0:	aa1403e0 	mov	x0, x20
   80dc4:	97fffe1b 	bl	80630 <uart_puts>
   80dc8:	b0000000 	adrp	x0, 81000 <shell+0x148>
   80dcc:	910e6000 	add	x0, x0, #0x398
   80dd0:	97fffe18 	bl	80630 <uart_puts>
   80dd4:	b9401a60 	ldr	w0, [x19, #24]
   80dd8:	97fffe2e 	bl	80690 <uart_hex>
   80ddc:	aa1403e0 	mov	x0, x20
   80de0:	a94153f3 	ldp	x19, x20, [sp, #16]
   80de4:	a8c27bfd 	ldp	x29, x30, [sp], #32
   80de8:	17fffe12 	b	80630 <uart_puts>
   80dec:	b0000000 	adrp	x0, 81000 <shell+0x148>
   80df0:	910d6000 	add	x0, x0, #0x358
   80df4:	97fffe0f 	bl	80630 <uart_puts>
   80df8:	17ffffdb 	b	80d64 <PrintInfo+0x6c>
   80dfc:	a94153f3 	ldp	x19, x20, [sp, #16]
   80e00:	b0000000 	adrp	x0, 81000 <shell+0x148>
   80e04:	a8c27bfd 	ldp	x29, x30, [sp], #32
   80e08:	910d6000 	add	x0, x0, #0x358
   80e0c:	17fffe09 	b	80630 <uart_puts>

0000000000080e10 <clear_screen>:
   80e10:	a9bf7bfd 	stp	x29, x30, [sp, #-16]!
   80e14:	52800360 	mov	w0, #0x1b                  	// #27
   80e18:	910003fd 	mov	x29, sp
   80e1c:	97fffdf1 	bl	805e0 <uart_send>
   80e20:	b0000000 	adrp	x0, 81000 <shell+0x148>
   80e24:	910ec000 	add	x0, x0, #0x3b0
   80e28:	97fffe02 	bl	80630 <uart_puts>
   80e2c:	52800360 	mov	w0, #0x1b                  	// #27
   80e30:	97fffdec 	bl	805e0 <uart_send>
   80e34:	a8c17bfd 	ldp	x29, x30, [sp], #16
   80e38:	b0000000 	adrp	x0, 81000 <shell+0x148>
   80e3c:	910ee000 	add	x0, x0, #0x3b8
   80e40:	17fffdfc 	b	80630 <uart_puts>
   80e44:	d503201f 	nop

0000000000080e48 <alloc_test>:
   80e48:	a9be7bfd 	stp	x29, x30, [sp, #-32]!
   80e4c:	910003fd 	mov	x29, sp
   80e50:	a90153f3 	stp	x19, x20, [sp, #16]
   80e54:	97fffc85 	bl	80068 <atoi>
   80e58:	2a0003f3 	mov	w19, w0
   80e5c:	93407c00 	sxtw	x0, w0
   80e60:	b5000080 	cbnz	x0, 80e70 <alloc_test+0x28>
   80e64:	a94153f3 	ldp	x19, x20, [sp, #16]
   80e68:	a8c27bfd 	ldp	x29, x30, [sp], #32
   80e6c:	d65f03c0 	ret
   80e70:	97fffc78 	bl	80050 <simple_alloc>
   80e74:	2a0003f4 	mov	w20, w0
   80e78:	b0000000 	adrp	x0, 81000 <shell+0x148>
   80e7c:	910f0000 	add	x0, x0, #0x3c0
   80e80:	97fffdec 	bl	80630 <uart_puts>
   80e84:	2a1403e0 	mov	w0, w20
   80e88:	97fffe02 	bl	80690 <uart_hex>
   80e8c:	b0000000 	adrp	x0, 81000 <shell+0x148>
   80e90:	910f6000 	add	x0, x0, #0x3d8
   80e94:	97fffde7 	bl	80630 <uart_puts>
   80e98:	2a1303e0 	mov	w0, w19
   80e9c:	97fffe13 	bl	806e8 <uart_dec>
   80ea0:	a94153f3 	ldp	x19, x20, [sp, #16]
   80ea4:	b0000000 	adrp	x0, 81000 <shell+0x148>
   80ea8:	a8c27bfd 	ldp	x29, x30, [sp], #32
   80eac:	910fa000 	add	x0, x0, #0x3e8
   80eb0:	17fffde0 	b	80630 <uart_puts>
   80eb4:	d503201f 	nop

0000000000080eb8 <shell>:
   80eb8:	a9ba7bfd 	stp	x29, x30, [sp, #-96]!
   80ebc:	b0000000 	adrp	x0, 81000 <shell+0x148>
   80ec0:	910003fd 	mov	x29, sp
   80ec4:	f9423000 	ldr	x0, [x0, #1120]
   80ec8:	a9025bf5 	stp	x21, x22, [sp, #32]
   80ecc:	b0000015 	adrp	x21, 81000 <shell+0x148>
   80ed0:	a90153f3 	stp	x19, x20, [sp, #16]
   80ed4:	a90363f7 	stp	x23, x24, [sp, #48]
   80ed8:	a9046bf9 	stp	x25, x26, [sp, #64]
   80edc:	a90573fb 	stp	x27, x28, [sp, #80]
   80ee0:	97fffcfc 	bl	802d0 <dtb_parse>
   80ee4:	97ffff69 	bl	80c88 <PrintHelp>
   80ee8:	f9423eb6 	ldr	x22, [x21, #1144]
   80eec:	91007ec1 	add	x1, x22, #0x1f
   80ef0:	aa1603e0 	mov	x0, x22
   80ef4:	3800141f 	strb	wzr, [x0], #1
   80ef8:	eb01001f 	cmp	x0, x1
   80efc:	54ffffc1 	b.ne	80ef4 <shell+0x3c>  // b.any
   80f00:	b0000017 	adrp	x23, 81000 <shell+0x148>
   80f04:	b0000018 	adrp	x24, 81000 <shell+0x148>
   80f08:	b000001a 	adrp	x26, 81000 <shell+0x148>
   80f0c:	d503201f 	nop
   80f10:	aa1603f4 	mov	x20, x22
   80f14:	52800013 	mov	w19, #0x0                   	// #0
   80f18:	14000005 	b	80f2c <shell+0x74>
   80f1c:	2a1c03f3 	mov	w19, w28
   80f20:	2a1b03e0 	mov	w0, w27
   80f24:	97fffdaf 	bl	805e0 <uart_send>
   80f28:	3800169b 	strb	w27, [x20], #1
   80f2c:	97fffdb7 	bl	80608 <uart_getc>
   80f30:	12001c1b 	and	w27, w0, #0xff
   80f34:	1100067c 	add	w28, w19, #0x1
   80f38:	7100377f 	cmp	w27, #0xd
   80f3c:	54ffff01 	b.ne	80f1c <shell+0x64>  // b.any
   80f40:	52800140 	mov	w0, #0xa                   	// #10
   80f44:	97fffda7 	bl	805e0 <uart_send>
   80f48:	2a1b03e0 	mov	w0, w27
   80f4c:	97fffda5 	bl	805e0 <uart_send>
   80f50:	f9423ea2 	ldr	x2, [x21, #1144]
   80f54:	52800401 	mov	w1, #0x20                  	// #32
   80f58:	aa0203e0 	mov	x0, x2
   80f5c:	3833c85f 	strb	wzr, [x2, w19, sxtw]
   80f60:	97fffe52 	bl	808a8 <strtok>
   80f64:	910fc2e1 	add	x1, x23, #0x3f0
   80f68:	aa0003f3 	mov	x19, x0
   80f6c:	97fffe31 	bl	80830 <strcmp>
   80f70:	35000100 	cbnz	w0, 80f90 <shell+0xd8>
   80f74:	97ffff45 	bl	80c88 <PrintHelp>
   80f78:	f9423ea0 	ldr	x0, [x21, #1144]
   80f7c:	93407f83 	sxtw	x3, w28
   80f80:	3820687f 	strb	wzr, [x3, x0]
   80f84:	d1000463 	sub	x3, x3, #0x1
   80f88:	37fffc43 	tbnz	w3, #31, 80f10 <shell+0x58>
   80f8c:	17fffffd 	b	80f80 <shell+0xc8>
   80f90:	910fe301 	add	x1, x24, #0x3f8
   80f94:	aa1303e0 	mov	x0, x19
   80f98:	97fffe26 	bl	80830 <strcmp>
   80f9c:	35000080 	cbnz	w0, 80fac <shell+0xf4>
   80fa0:	910ca340 	add	x0, x26, #0x328
   80fa4:	97fffda3 	bl	80630 <uart_puts>
   80fa8:	17fffff4 	b	80f78 <shell+0xc0>
   80fac:	b0000000 	adrp	x0, 81000 <shell+0x148>
   80fb0:	91100001 	add	x1, x0, #0x400
   80fb4:	aa1303e0 	mov	x0, x19
   80fb8:	97fffe1e 	bl	80830 <strcmp>
   80fbc:	35000060 	cbnz	w0, 80fc8 <shell+0x110>
   80fc0:	97ffff4e 	bl	80cf8 <PrintInfo>
   80fc4:	17ffffed 	b	80f78 <shell+0xc0>
   80fc8:	b0000000 	adrp	x0, 81000 <shell+0x148>
   80fcc:	91102001 	add	x1, x0, #0x408
   80fd0:	aa1303e0 	mov	x0, x19
   80fd4:	97fffe17 	bl	80830 <strcmp>
   80fd8:	35000120 	cbnz	w0, 80ffc <shell+0x144>
   80fdc:	d2800380 	mov	x0, #0x1c                  	// #28
   80fe0:	52800401 	mov	w1, #0x20                  	// #32
   80fe4:	f2a7e200 	movk	x0, #0x3f10, lsl #16
   80fe8:	72ab4001 	movk	w1, #0x5a00, lsl #16
   80fec:	b9000001 	str	w1, [x0]
   80ff0:	110f2021 	add	w1, w1, #0x3c8
   80ff4:	b9000801 	str	w1, [x0, #8]
   80ff8:	17ffffe0 	b	80f78 <shell+0xc0>
   80ffc:	b0000000 	adrp	x0, 81000 <shell+0x148>
   81000:	91104001 	add	x1, x0, #0x410
   81004:	aa1303e0 	mov	x0, x19
   81008:	97fffe0a 	bl	80830 <strcmp>
   8100c:	35000060 	cbnz	w0, 81018 <shell+0x160>
   81010:	97ffff80 	bl	80e10 <clear_screen>
   81014:	17ffffd9 	b	80f78 <shell+0xc0>
   81018:	90000000 	adrp	x0, 81000 <shell+0x148>
   8101c:	91106001 	add	x1, x0, #0x418
   81020:	aa1303e0 	mov	x0, x19
   81024:	97fffe03 	bl	80830 <strcmp>
   81028:	35000060 	cbnz	w0, 81034 <shell+0x17c>
   8102c:	97fffe91 	bl	80a70 <cpio_ls>
   81030:	17ffffd2 	b	80f78 <shell+0xc0>
   81034:	90000000 	adrp	x0, 81000 <shell+0x148>
   81038:	91108001 	add	x1, x0, #0x420
   8103c:	aa1303e0 	mov	x0, x19
   81040:	97fffdfc 	bl	80830 <strcmp>
   81044:	350000c0 	cbnz	w0, 8105c <shell+0x1a4>
   81048:	52800401 	mov	w1, #0x20                  	// #32
   8104c:	d2800000 	mov	x0, #0x0                   	// #0
   81050:	97fffe16 	bl	808a8 <strtok>
   81054:	97fffea7 	bl	80af0 <cpio_cat>
   81058:	17ffffc8 	b	80f78 <shell+0xc0>
   8105c:	90000000 	adrp	x0, 81000 <shell+0x148>
   81060:	9110a001 	add	x1, x0, #0x428
   81064:	aa1303e0 	mov	x0, x19
   81068:	97fffdf2 	bl	80830 <strcmp>
   8106c:	35000060 	cbnz	w0, 81078 <shell+0x1c0>
   81070:	97fffc98 	bl	802d0 <dtb_parse>
   81074:	17ffffc1 	b	80f78 <shell+0xc0>
   81078:	90000000 	adrp	x0, 81000 <shell+0x148>
   8107c:	9110c001 	add	x1, x0, #0x430
   81080:	aa1303e0 	mov	x0, x19
   81084:	97fffdeb 	bl	80830 <strcmp>
   81088:	340000c0 	cbz	w0, 810a0 <shell+0x1e8>
   8108c:	b4fff773 	cbz	x19, 80f78 <shell+0xc0>
   81090:	90000000 	adrp	x0, 81000 <shell+0x148>
   81094:	9110e000 	add	x0, x0, #0x438
   81098:	97fffd66 	bl	80630 <uart_puts>
   8109c:	17ffffb7 	b	80f78 <shell+0xc0>
   810a0:	52800401 	mov	w1, #0x20                  	// #32
   810a4:	d2800000 	mov	x0, #0x0                   	// #0
   810a8:	97fffe00 	bl	808a8 <strtok>
   810ac:	97ffff67 	bl	80e48 <alloc_test>
   810b0:	17ffffb2 	b	80f78 <shell+0xc0>
   810b4:	00000000 	.inst	0x00000000 ; undefined

00000000000810b8 <mbox_call>:
   810b8:	90000004 	adrp	x4, 81000 <shell+0x148>
   810bc:	12000c00 	and	w0, w0, #0xf
   810c0:	d2971301 	mov	x1, #0xb898                	// #47256
   810c4:	f9423482 	ldr	x2, [x4, #1128]
   810c8:	f2a7e001 	movk	x1, #0x3f00, lsl #16
   810cc:	2a020002 	orr	w2, w0, w2
   810d0:	d503201f 	nop
   810d4:	b9400020 	ldr	w0, [x1]
   810d8:	37ffffc0 	tbnz	w0, #31, 810d0 <mbox_call+0x18>
   810dc:	d2971400 	mov	x0, #0xb8a0                	// #47264
   810e0:	d2971301 	mov	x1, #0xb898                	// #47256
   810e4:	f2a7e000 	movk	x0, #0x3f00, lsl #16
   810e8:	d2971003 	mov	x3, #0xb880                	// #47232
   810ec:	f2a7e001 	movk	x1, #0x3f00, lsl #16
   810f0:	f2a7e003 	movk	x3, #0x3f00, lsl #16
   810f4:	b9000002 	str	w2, [x0]
   810f8:	d503201f 	nop
   810fc:	b9400020 	ldr	w0, [x1]
   81100:	37f7ffc0 	tbnz	w0, #30, 810f8 <mbox_call+0x40>
   81104:	b9400060 	ldr	w0, [x3]
   81108:	6b02001f 	cmp	w0, w2
   8110c:	54ffff61 	b.ne	810f8 <mbox_call+0x40>  // b.any
   81110:	f9423484 	ldr	x4, [x4, #1128]
   81114:	52b00000 	mov	w0, #0x80000000            	// #-2147483648
   81118:	b9400481 	ldr	w1, [x4, #4]
   8111c:	6b00003f 	cmp	w1, w0
   81120:	1a9f17e0 	cset	w0, eq  // eq = none
   81124:	d65f03c0 	ret
