
kernel8.elf:     file format elf64-littleaarch64


Disassembly of section .text:

0000000000080000 <_code>:
   80000:	d53800a1 	mrs	x1, mpidr_el1
   80004:	92400421 	and	x1, x1, #0x3
   80008:	b4000061 	cbz	x1, 80014 <cpu_id_0>
   8000c:	d503205f 	wfe
   80010:	17ffffff 	b	8000c <_code+0xc>

0000000000080014 <cpu_id_0>:
   80014:	94000014 	bl	80064 <from_el2_to_el1>
   80018:	10003f41 	adr	x1, 80800 <exception_vector_table>
   8001c:	d518c001 	msr	vbar_el1, x1
   80020:	d2800021 	mov	x1, #0x1                   	// #1
   80024:	d51be221 	msr	cntp_ctl_el0, x1
   80028:	d53be001 	mrs	x1, cntfrq_el0
   8002c:	d51be201 	msr	cntp_tval_el0, x1
   80030:	d2800041 	mov	x1, #0x2                   	// #2
   80034:	58007ea2 	ldr	x2, 81008 <exception_vector_table+0x808>
   80038:	b9000041 	str	w1, [x2]
   8003c:	58007ea1 	ldr	x1, 81010 <exception_vector_table+0x810>
   80040:	9100003f 	mov	sp, x1
   80044:	58007ea1 	ldr	x1, 81018 <exception_vector_table+0x818>
   80048:	18007dc2 	ldr	w2, 81000 <exception_vector_table+0x800>
   8004c:	34000082 	cbz	w2, 8005c <cpu_id_0+0x48>
   80050:	f800843f 	str	xzr, [x1], #8
   80054:	51000442 	sub	w2, w2, #0x1
   80058:	35ffffa2 	cbnz	w2, 8004c <cpu_id_0+0x38>
   8005c:	94000a07 	bl	82878 <main>
   80060:	17ffffeb 	b	8000c <_code+0xc>

0000000000080064 <from_el2_to_el1>:
   80064:	d2b00005 	mov	x5, #0x80000000            	// #2147483648
   80068:	d51c1105 	msr	hcr_el2, x5
   8006c:	d28068a5 	mov	x5, #0x345                 	// #837
   80070:	d51c4005 	msr	spsr_el2, x5
   80074:	d51c403e 	msr	elr_el2, x30
   80078:	d69f03e0 	eret

000000000008007c <core_timer_handler>:
   8007c:	940003f5 	bl	81050 <print_sec>
   80080:	d53be001 	mrs	x1, cntfrq_el0
   80084:	d37ef421 	lsl	x1, x1, #2
   80088:	d51be201 	msr	cntp_tval_el0, x1
   8008c:	a94007e0 	ldp	x0, x1, [sp]
   80090:	a9410fe2 	ldp	x2, x3, [sp, #16]
   80094:	a94217e4 	ldp	x4, x5, [sp, #32]
   80098:	a9431fe6 	ldp	x6, x7, [sp, #48]
   8009c:	a94427e8 	ldp	x8, x9, [sp, #64]
   800a0:	a9452fea 	ldp	x10, x11, [sp, #80]
   800a4:	a94637ec 	ldp	x12, x13, [sp, #96]
   800a8:	a9473fee 	ldp	x14, x15, [sp, #112]
   800ac:	a94847f0 	ldp	x16, x17, [sp, #128]
   800b0:	a9494ff2 	ldp	x18, x19, [sp, #144]
   800b4:	a94a57f4 	ldp	x20, x21, [sp, #160]
   800b8:	a94b5ff6 	ldp	x22, x23, [sp, #176]
   800bc:	a94c67f8 	ldp	x24, x25, [sp, #192]
   800c0:	a94d6ffa 	ldp	x26, x27, [sp, #208]
   800c4:	a94e77fc 	ldp	x28, x29, [sp, #224]
   800c8:	f9407bfe 	ldr	x30, [sp, #240]
   800cc:	910403ff 	add	sp, sp, #0x100
   800d0:	d69f03e0 	eret

00000000000800d4 <exception_handler>:
   800d4:	d10403ff 	sub	sp, sp, #0x100
   800d8:	a90007e0 	stp	x0, x1, [sp]
   800dc:	a9010fe2 	stp	x2, x3, [sp, #16]
   800e0:	a90217e4 	stp	x4, x5, [sp, #32]
   800e4:	a9031fe6 	stp	x6, x7, [sp, #48]
   800e8:	a90427e8 	stp	x8, x9, [sp, #64]
   800ec:	a9052fea 	stp	x10, x11, [sp, #80]
   800f0:	a90637ec 	stp	x12, x13, [sp, #96]
   800f4:	a9073fee 	stp	x14, x15, [sp, #112]
   800f8:	a90847f0 	stp	x16, x17, [sp, #128]
   800fc:	a9094ff2 	stp	x18, x19, [sp, #144]
   80100:	a90a57f4 	stp	x20, x21, [sp, #160]
   80104:	a90b5ff6 	stp	x22, x23, [sp, #176]
   80108:	a90c67f8 	stp	x24, x25, [sp, #192]
   8010c:	a90d6ffa 	stp	x26, x27, [sp, #208]
   80110:	a90e77fc 	stp	x28, x29, [sp, #224]
   80114:	f9007bfe 	str	x30, [sp, #240]
   80118:	94000b4a 	bl	82e40 <svc_handler>
   8011c:	a94007e0 	ldp	x0, x1, [sp]
   80120:	a9410fe2 	ldp	x2, x3, [sp, #16]
   80124:	a94217e4 	ldp	x4, x5, [sp, #32]
   80128:	a9431fe6 	ldp	x6, x7, [sp, #48]
   8012c:	a94427e8 	ldp	x8, x9, [sp, #64]
   80130:	a9452fea 	ldp	x10, x11, [sp, #80]
   80134:	a94637ec 	ldp	x12, x13, [sp, #96]
   80138:	a9473fee 	ldp	x14, x15, [sp, #112]
   8013c:	a94847f0 	ldp	x16, x17, [sp, #128]
   80140:	a9494ff2 	ldp	x18, x19, [sp, #144]
   80144:	a94a57f4 	ldp	x20, x21, [sp, #160]
   80148:	a94b5ff6 	ldp	x22, x23, [sp, #176]
   8014c:	a94c67f8 	ldp	x24, x25, [sp, #192]
   80150:	a94d6ffa 	ldp	x26, x27, [sp, #208]
   80154:	a94e77fc 	ldp	x28, x29, [sp, #224]
   80158:	f9407bfe 	ldr	x30, [sp, #240]
   8015c:	910403ff 	add	sp, sp, #0x100
   80160:	d69f03e0 	eret

0000000000080164 <gpu_irq_handler>:
   80164:	9400070d 	bl	81d98 <uart_irq_handler>
   80168:	a94007e0 	ldp	x0, x1, [sp]
   8016c:	a9410fe2 	ldp	x2, x3, [sp, #16]
   80170:	a94217e4 	ldp	x4, x5, [sp, #32]
   80174:	a9431fe6 	ldp	x6, x7, [sp, #48]
   80178:	a94427e8 	ldp	x8, x9, [sp, #64]
   8017c:	a9452fea 	ldp	x10, x11, [sp, #80]
   80180:	a94637ec 	ldp	x12, x13, [sp, #96]
   80184:	a9473fee 	ldp	x14, x15, [sp, #112]
   80188:	a94847f0 	ldp	x16, x17, [sp, #128]
   8018c:	a9494ff2 	ldp	x18, x19, [sp, #144]
   80190:	a94a57f4 	ldp	x20, x21, [sp, #160]
   80194:	a94b5ff6 	ldp	x22, x23, [sp, #176]
   80198:	a94c67f8 	ldp	x24, x25, [sp, #192]
   8019c:	a94d6ffa 	ldp	x26, x27, [sp, #208]
   801a0:	a94e77fc 	ldp	x28, x29, [sp, #224]
   801a4:	f9407bfe 	ldr	x30, [sp, #240]
   801a8:	910403ff 	add	sp, sp, #0x100
   801ac:	d69f03e0 	eret

00000000000801b0 <kernel_irq_source_determine>:
   801b0:	d10403ff 	sub	sp, sp, #0x100
   801b4:	a90007e0 	stp	x0, x1, [sp]
   801b8:	a9010fe2 	stp	x2, x3, [sp, #16]
   801bc:	a90217e4 	stp	x4, x5, [sp, #32]
   801c0:	a9031fe6 	stp	x6, x7, [sp, #48]
   801c4:	a90427e8 	stp	x8, x9, [sp, #64]
   801c8:	a9052fea 	stp	x10, x11, [sp, #80]
   801cc:	a90637ec 	stp	x12, x13, [sp, #96]
   801d0:	a9073fee 	stp	x14, x15, [sp, #112]
   801d4:	a90847f0 	stp	x16, x17, [sp, #128]
   801d8:	a9094ff2 	stp	x18, x19, [sp, #144]
   801dc:	a90a57f4 	stp	x20, x21, [sp, #160]
   801e0:	a90b5ff6 	stp	x22, x23, [sp, #176]
   801e4:	a90c67f8 	stp	x24, x25, [sp, #192]
   801e8:	a90d6ffa 	stp	x26, x27, [sp, #208]
   801ec:	a90e77fc 	stp	x28, x29, [sp, #224]
   801f0:	f9007bfe 	str	x30, [sp, #240]
   801f4:	58007162 	ldr	x2, 81020 <exception_vector_table+0x820>
   801f8:	f9400043 	ldr	x3, [x2]
   801fc:	92780064 	and	x4, x3, #0x100
   80200:	f104009f 	cmp	x4, #0x100
   80204:	54fffb00 	b.eq	80164 <gpu_irq_handler>  // b.none
   80208:	927f0064 	and	x4, x3, #0x2
   8020c:	f100089f 	cmp	x4, #0x2
   80210:	54fff360 	b.eq	8007c <core_timer_handler>  // b.none
   80214:	94000408 	bl	81234 <exit>

0000000000080218 <usr_irq_source_determine>:
   80218:	d10403ff 	sub	sp, sp, #0x100
   8021c:	a90007e0 	stp	x0, x1, [sp]
   80220:	a9010fe2 	stp	x2, x3, [sp, #16]
   80224:	a90217e4 	stp	x4, x5, [sp, #32]
   80228:	a9031fe6 	stp	x6, x7, [sp, #48]
   8022c:	a90427e8 	stp	x8, x9, [sp, #64]
   80230:	a9052fea 	stp	x10, x11, [sp, #80]
   80234:	a90637ec 	stp	x12, x13, [sp, #96]
   80238:	a9073fee 	stp	x14, x15, [sp, #112]
   8023c:	a90847f0 	stp	x16, x17, [sp, #128]
   80240:	a9094ff2 	stp	x18, x19, [sp, #144]
   80244:	a90a57f4 	stp	x20, x21, [sp, #160]
   80248:	a90b5ff6 	stp	x22, x23, [sp, #176]
   8024c:	a90c67f8 	stp	x24, x25, [sp, #192]
   80250:	a90d6ffa 	stp	x26, x27, [sp, #208]
   80254:	a90e77fc 	stp	x28, x29, [sp, #224]
   80258:	f9007bfe 	str	x30, [sp, #240]
   8025c:	58006e22 	ldr	x2, 81020 <exception_vector_table+0x820>
   80260:	f9400043 	ldr	x3, [x2]
   80264:	927f0064 	and	x4, x3, #0x2
   80268:	f100089f 	cmp	x4, #0x2
   8026c:	54fff080 	b.eq	8007c <core_timer_handler>  // b.none
   80270:	940003f1 	bl	81234 <exit>
   80274:	d503201f 	nop
   80278:	d503201f 	nop
   8027c:	d503201f 	nop
   80280:	d503201f 	nop
   80284:	d503201f 	nop
   80288:	d503201f 	nop
   8028c:	d503201f 	nop
   80290:	d503201f 	nop
   80294:	d503201f 	nop
   80298:	d503201f 	nop
   8029c:	d503201f 	nop
   802a0:	d503201f 	nop
   802a4:	d503201f 	nop
   802a8:	d503201f 	nop
   802ac:	d503201f 	nop
   802b0:	d503201f 	nop
   802b4:	d503201f 	nop
   802b8:	d503201f 	nop
   802bc:	d503201f 	nop
   802c0:	d503201f 	nop
   802c4:	d503201f 	nop
   802c8:	d503201f 	nop
   802cc:	d503201f 	nop
   802d0:	d503201f 	nop
   802d4:	d503201f 	nop
   802d8:	d503201f 	nop
   802dc:	d503201f 	nop
   802e0:	d503201f 	nop
   802e4:	d503201f 	nop
   802e8:	d503201f 	nop
   802ec:	d503201f 	nop
   802f0:	d503201f 	nop
   802f4:	d503201f 	nop
   802f8:	d503201f 	nop
   802fc:	d503201f 	nop
   80300:	d503201f 	nop
   80304:	d503201f 	nop
   80308:	d503201f 	nop
   8030c:	d503201f 	nop
   80310:	d503201f 	nop
   80314:	d503201f 	nop
   80318:	d503201f 	nop
   8031c:	d503201f 	nop
   80320:	d503201f 	nop
   80324:	d503201f 	nop
   80328:	d503201f 	nop
   8032c:	d503201f 	nop
   80330:	d503201f 	nop
   80334:	d503201f 	nop
   80338:	d503201f 	nop
   8033c:	d503201f 	nop
   80340:	d503201f 	nop
   80344:	d503201f 	nop
   80348:	d503201f 	nop
   8034c:	d503201f 	nop
   80350:	d503201f 	nop
   80354:	d503201f 	nop
   80358:	d503201f 	nop
   8035c:	d503201f 	nop
   80360:	d503201f 	nop
   80364:	d503201f 	nop
   80368:	d503201f 	nop
   8036c:	d503201f 	nop
   80370:	d503201f 	nop
   80374:	d503201f 	nop
   80378:	d503201f 	nop
   8037c:	d503201f 	nop
   80380:	d503201f 	nop
   80384:	d503201f 	nop
   80388:	d503201f 	nop
   8038c:	d503201f 	nop
   80390:	d503201f 	nop
   80394:	d503201f 	nop
   80398:	d503201f 	nop
   8039c:	d503201f 	nop
   803a0:	d503201f 	nop
   803a4:	d503201f 	nop
   803a8:	d503201f 	nop
   803ac:	d503201f 	nop
   803b0:	d503201f 	nop
   803b4:	d503201f 	nop
   803b8:	d503201f 	nop
   803bc:	d503201f 	nop
   803c0:	d503201f 	nop
   803c4:	d503201f 	nop
   803c8:	d503201f 	nop
   803cc:	d503201f 	nop
   803d0:	d503201f 	nop
   803d4:	d503201f 	nop
   803d8:	d503201f 	nop
   803dc:	d503201f 	nop
   803e0:	d503201f 	nop
   803e4:	d503201f 	nop
   803e8:	d503201f 	nop
   803ec:	d503201f 	nop
   803f0:	d503201f 	nop
   803f4:	d503201f 	nop
   803f8:	d503201f 	nop
   803fc:	d503201f 	nop
   80400:	d503201f 	nop
   80404:	d503201f 	nop
   80408:	d503201f 	nop
   8040c:	d503201f 	nop
   80410:	d503201f 	nop
   80414:	d503201f 	nop
   80418:	d503201f 	nop
   8041c:	d503201f 	nop
   80420:	d503201f 	nop
   80424:	d503201f 	nop
   80428:	d503201f 	nop
   8042c:	d503201f 	nop
   80430:	d503201f 	nop
   80434:	d503201f 	nop
   80438:	d503201f 	nop
   8043c:	d503201f 	nop
   80440:	d503201f 	nop
   80444:	d503201f 	nop
   80448:	d503201f 	nop
   8044c:	d503201f 	nop
   80450:	d503201f 	nop
   80454:	d503201f 	nop
   80458:	d503201f 	nop
   8045c:	d503201f 	nop
   80460:	d503201f 	nop
   80464:	d503201f 	nop
   80468:	d503201f 	nop
   8046c:	d503201f 	nop
   80470:	d503201f 	nop
   80474:	d503201f 	nop
   80478:	d503201f 	nop
   8047c:	d503201f 	nop
   80480:	d503201f 	nop
   80484:	d503201f 	nop
   80488:	d503201f 	nop
   8048c:	d503201f 	nop
   80490:	d503201f 	nop
   80494:	d503201f 	nop
   80498:	d503201f 	nop
   8049c:	d503201f 	nop
   804a0:	d503201f 	nop
   804a4:	d503201f 	nop
   804a8:	d503201f 	nop
   804ac:	d503201f 	nop
   804b0:	d503201f 	nop
   804b4:	d503201f 	nop
   804b8:	d503201f 	nop
   804bc:	d503201f 	nop
   804c0:	d503201f 	nop
   804c4:	d503201f 	nop
   804c8:	d503201f 	nop
   804cc:	d503201f 	nop
   804d0:	d503201f 	nop
   804d4:	d503201f 	nop
   804d8:	d503201f 	nop
   804dc:	d503201f 	nop
   804e0:	d503201f 	nop
   804e4:	d503201f 	nop
   804e8:	d503201f 	nop
   804ec:	d503201f 	nop
   804f0:	d503201f 	nop
   804f4:	d503201f 	nop
   804f8:	d503201f 	nop
   804fc:	d503201f 	nop
   80500:	d503201f 	nop
   80504:	d503201f 	nop
   80508:	d503201f 	nop
   8050c:	d503201f 	nop
   80510:	d503201f 	nop
   80514:	d503201f 	nop
   80518:	d503201f 	nop
   8051c:	d503201f 	nop
   80520:	d503201f 	nop
   80524:	d503201f 	nop
   80528:	d503201f 	nop
   8052c:	d503201f 	nop
   80530:	d503201f 	nop
   80534:	d503201f 	nop
   80538:	d503201f 	nop
   8053c:	d503201f 	nop
   80540:	d503201f 	nop
   80544:	d503201f 	nop
   80548:	d503201f 	nop
   8054c:	d503201f 	nop
   80550:	d503201f 	nop
   80554:	d503201f 	nop
   80558:	d503201f 	nop
   8055c:	d503201f 	nop
   80560:	d503201f 	nop
   80564:	d503201f 	nop
   80568:	d503201f 	nop
   8056c:	d503201f 	nop
   80570:	d503201f 	nop
   80574:	d503201f 	nop
   80578:	d503201f 	nop
   8057c:	d503201f 	nop
   80580:	d503201f 	nop
   80584:	d503201f 	nop
   80588:	d503201f 	nop
   8058c:	d503201f 	nop
   80590:	d503201f 	nop
   80594:	d503201f 	nop
   80598:	d503201f 	nop
   8059c:	d503201f 	nop
   805a0:	d503201f 	nop
   805a4:	d503201f 	nop
   805a8:	d503201f 	nop
   805ac:	d503201f 	nop
   805b0:	d503201f 	nop
   805b4:	d503201f 	nop
   805b8:	d503201f 	nop
   805bc:	d503201f 	nop
   805c0:	d503201f 	nop
   805c4:	d503201f 	nop
   805c8:	d503201f 	nop
   805cc:	d503201f 	nop
   805d0:	d503201f 	nop
   805d4:	d503201f 	nop
   805d8:	d503201f 	nop
   805dc:	d503201f 	nop
   805e0:	d503201f 	nop
   805e4:	d503201f 	nop
   805e8:	d503201f 	nop
   805ec:	d503201f 	nop
   805f0:	d503201f 	nop
   805f4:	d503201f 	nop
   805f8:	d503201f 	nop
   805fc:	d503201f 	nop
   80600:	d503201f 	nop
   80604:	d503201f 	nop
   80608:	d503201f 	nop
   8060c:	d503201f 	nop
   80610:	d503201f 	nop
   80614:	d503201f 	nop
   80618:	d503201f 	nop
   8061c:	d503201f 	nop
   80620:	d503201f 	nop
   80624:	d503201f 	nop
   80628:	d503201f 	nop
   8062c:	d503201f 	nop
   80630:	d503201f 	nop
   80634:	d503201f 	nop
   80638:	d503201f 	nop
   8063c:	d503201f 	nop
   80640:	d503201f 	nop
   80644:	d503201f 	nop
   80648:	d503201f 	nop
   8064c:	d503201f 	nop
   80650:	d503201f 	nop
   80654:	d503201f 	nop
   80658:	d503201f 	nop
   8065c:	d503201f 	nop
   80660:	d503201f 	nop
   80664:	d503201f 	nop
   80668:	d503201f 	nop
   8066c:	d503201f 	nop
   80670:	d503201f 	nop
   80674:	d503201f 	nop
   80678:	d503201f 	nop
   8067c:	d503201f 	nop
   80680:	d503201f 	nop
   80684:	d503201f 	nop
   80688:	d503201f 	nop
   8068c:	d503201f 	nop
   80690:	d503201f 	nop
   80694:	d503201f 	nop
   80698:	d503201f 	nop
   8069c:	d503201f 	nop
   806a0:	d503201f 	nop
   806a4:	d503201f 	nop
   806a8:	d503201f 	nop
   806ac:	d503201f 	nop
   806b0:	d503201f 	nop
   806b4:	d503201f 	nop
   806b8:	d503201f 	nop
   806bc:	d503201f 	nop
   806c0:	d503201f 	nop
   806c4:	d503201f 	nop
   806c8:	d503201f 	nop
   806cc:	d503201f 	nop
   806d0:	d503201f 	nop
   806d4:	d503201f 	nop
   806d8:	d503201f 	nop
   806dc:	d503201f 	nop
   806e0:	d503201f 	nop
   806e4:	d503201f 	nop
   806e8:	d503201f 	nop
   806ec:	d503201f 	nop
   806f0:	d503201f 	nop
   806f4:	d503201f 	nop
   806f8:	d503201f 	nop
   806fc:	d503201f 	nop
   80700:	d503201f 	nop
   80704:	d503201f 	nop
   80708:	d503201f 	nop
   8070c:	d503201f 	nop
   80710:	d503201f 	nop
   80714:	d503201f 	nop
   80718:	d503201f 	nop
   8071c:	d503201f 	nop
   80720:	d503201f 	nop
   80724:	d503201f 	nop
   80728:	d503201f 	nop
   8072c:	d503201f 	nop
   80730:	d503201f 	nop
   80734:	d503201f 	nop
   80738:	d503201f 	nop
   8073c:	d503201f 	nop
   80740:	d503201f 	nop
   80744:	d503201f 	nop
   80748:	d503201f 	nop
   8074c:	d503201f 	nop
   80750:	d503201f 	nop
   80754:	d503201f 	nop
   80758:	d503201f 	nop
   8075c:	d503201f 	nop
   80760:	d503201f 	nop
   80764:	d503201f 	nop
   80768:	d503201f 	nop
   8076c:	d503201f 	nop
   80770:	d503201f 	nop
   80774:	d503201f 	nop
   80778:	d503201f 	nop
   8077c:	d503201f 	nop
   80780:	d503201f 	nop
   80784:	d503201f 	nop
   80788:	d503201f 	nop
   8078c:	d503201f 	nop
   80790:	d503201f 	nop
   80794:	d503201f 	nop
   80798:	d503201f 	nop
   8079c:	d503201f 	nop
   807a0:	d503201f 	nop
   807a4:	d503201f 	nop
   807a8:	d503201f 	nop
   807ac:	d503201f 	nop
   807b0:	d503201f 	nop
   807b4:	d503201f 	nop
   807b8:	d503201f 	nop
   807bc:	d503201f 	nop
   807c0:	d503201f 	nop
   807c4:	d503201f 	nop
   807c8:	d503201f 	nop
   807cc:	d503201f 	nop
   807d0:	d503201f 	nop
   807d4:	d503201f 	nop
   807d8:	d503201f 	nop
   807dc:	d503201f 	nop
   807e0:	d503201f 	nop
   807e4:	d503201f 	nop
   807e8:	d503201f 	nop
   807ec:	d503201f 	nop
   807f0:	d503201f 	nop
   807f4:	d503201f 	nop
   807f8:	d503201f 	nop
   807fc:	d503201f 	nop

0000000000080800 <exception_vector_table>:
   80800:	14000293 	b	8124c <exit_000>
   80804:	d503201f 	nop
   80808:	d503201f 	nop
   8080c:	d503201f 	nop
   80810:	d503201f 	nop
   80814:	d503201f 	nop
   80818:	d503201f 	nop
   8081c:	d503201f 	nop
   80820:	d503201f 	nop
   80824:	d503201f 	nop
   80828:	d503201f 	nop
   8082c:	d503201f 	nop
   80830:	d503201f 	nop
   80834:	d503201f 	nop
   80838:	d503201f 	nop
   8083c:	d503201f 	nop
   80840:	d503201f 	nop
   80844:	d503201f 	nop
   80848:	d503201f 	nop
   8084c:	d503201f 	nop
   80850:	d503201f 	nop
   80854:	d503201f 	nop
   80858:	d503201f 	nop
   8085c:	d503201f 	nop
   80860:	d503201f 	nop
   80864:	d503201f 	nop
   80868:	d503201f 	nop
   8086c:	d503201f 	nop
   80870:	d503201f 	nop
   80874:	d503201f 	nop
   80878:	d503201f 	nop
   8087c:	d503201f 	nop
   80880:	14000279 	b	81264 <exit_080>
   80884:	d503201f 	nop
   80888:	d503201f 	nop
   8088c:	d503201f 	nop
   80890:	d503201f 	nop
   80894:	d503201f 	nop
   80898:	d503201f 	nop
   8089c:	d503201f 	nop
   808a0:	d503201f 	nop
   808a4:	d503201f 	nop
   808a8:	d503201f 	nop
   808ac:	d503201f 	nop
   808b0:	d503201f 	nop
   808b4:	d503201f 	nop
   808b8:	d503201f 	nop
   808bc:	d503201f 	nop
   808c0:	d503201f 	nop
   808c4:	d503201f 	nop
   808c8:	d503201f 	nop
   808cc:	d503201f 	nop
   808d0:	d503201f 	nop
   808d4:	d503201f 	nop
   808d8:	d503201f 	nop
   808dc:	d503201f 	nop
   808e0:	d503201f 	nop
   808e4:	d503201f 	nop
   808e8:	d503201f 	nop
   808ec:	d503201f 	nop
   808f0:	d503201f 	nop
   808f4:	d503201f 	nop
   808f8:	d503201f 	nop
   808fc:	d503201f 	nop
   80900:	1400025f 	b	8127c <exit_100>
   80904:	d503201f 	nop
   80908:	d503201f 	nop
   8090c:	d503201f 	nop
   80910:	d503201f 	nop
   80914:	d503201f 	nop
   80918:	d503201f 	nop
   8091c:	d503201f 	nop
   80920:	d503201f 	nop
   80924:	d503201f 	nop
   80928:	d503201f 	nop
   8092c:	d503201f 	nop
   80930:	d503201f 	nop
   80934:	d503201f 	nop
   80938:	d503201f 	nop
   8093c:	d503201f 	nop
   80940:	d503201f 	nop
   80944:	d503201f 	nop
   80948:	d503201f 	nop
   8094c:	d503201f 	nop
   80950:	d503201f 	nop
   80954:	d503201f 	nop
   80958:	d503201f 	nop
   8095c:	d503201f 	nop
   80960:	d503201f 	nop
   80964:	d503201f 	nop
   80968:	d503201f 	nop
   8096c:	d503201f 	nop
   80970:	d503201f 	nop
   80974:	d503201f 	nop
   80978:	d503201f 	nop
   8097c:	d503201f 	nop
   80980:	14000245 	b	81294 <exit_180>
   80984:	d503201f 	nop
   80988:	d503201f 	nop
   8098c:	d503201f 	nop
   80990:	d503201f 	nop
   80994:	d503201f 	nop
   80998:	d503201f 	nop
   8099c:	d503201f 	nop
   809a0:	d503201f 	nop
   809a4:	d503201f 	nop
   809a8:	d503201f 	nop
   809ac:	d503201f 	nop
   809b0:	d503201f 	nop
   809b4:	d503201f 	nop
   809b8:	d503201f 	nop
   809bc:	d503201f 	nop
   809c0:	d503201f 	nop
   809c4:	d503201f 	nop
   809c8:	d503201f 	nop
   809cc:	d503201f 	nop
   809d0:	d503201f 	nop
   809d4:	d503201f 	nop
   809d8:	d503201f 	nop
   809dc:	d503201f 	nop
   809e0:	d503201f 	nop
   809e4:	d503201f 	nop
   809e8:	d503201f 	nop
   809ec:	d503201f 	nop
   809f0:	d503201f 	nop
   809f4:	d503201f 	nop
   809f8:	d503201f 	nop
   809fc:	d503201f 	nop
   80a00:	1400022b 	b	812ac <exit_200>
   80a04:	d503201f 	nop
   80a08:	d503201f 	nop
   80a0c:	d503201f 	nop
   80a10:	d503201f 	nop
   80a14:	d503201f 	nop
   80a18:	d503201f 	nop
   80a1c:	d503201f 	nop
   80a20:	d503201f 	nop
   80a24:	d503201f 	nop
   80a28:	d503201f 	nop
   80a2c:	d503201f 	nop
   80a30:	d503201f 	nop
   80a34:	d503201f 	nop
   80a38:	d503201f 	nop
   80a3c:	d503201f 	nop
   80a40:	d503201f 	nop
   80a44:	d503201f 	nop
   80a48:	d503201f 	nop
   80a4c:	d503201f 	nop
   80a50:	d503201f 	nop
   80a54:	d503201f 	nop
   80a58:	d503201f 	nop
   80a5c:	d503201f 	nop
   80a60:	d503201f 	nop
   80a64:	d503201f 	nop
   80a68:	d503201f 	nop
   80a6c:	d503201f 	nop
   80a70:	d503201f 	nop
   80a74:	d503201f 	nop
   80a78:	d503201f 	nop
   80a7c:	d503201f 	nop
   80a80:	17fffdcc 	b	801b0 <kernel_irq_source_determine>
   80a84:	d503201f 	nop
   80a88:	d503201f 	nop
   80a8c:	d503201f 	nop
   80a90:	d503201f 	nop
   80a94:	d503201f 	nop
   80a98:	d503201f 	nop
   80a9c:	d503201f 	nop
   80aa0:	d503201f 	nop
   80aa4:	d503201f 	nop
   80aa8:	d503201f 	nop
   80aac:	d503201f 	nop
   80ab0:	d503201f 	nop
   80ab4:	d503201f 	nop
   80ab8:	d503201f 	nop
   80abc:	d503201f 	nop
   80ac0:	d503201f 	nop
   80ac4:	d503201f 	nop
   80ac8:	d503201f 	nop
   80acc:	d503201f 	nop
   80ad0:	d503201f 	nop
   80ad4:	d503201f 	nop
   80ad8:	d503201f 	nop
   80adc:	d503201f 	nop
   80ae0:	d503201f 	nop
   80ae4:	d503201f 	nop
   80ae8:	d503201f 	nop
   80aec:	d503201f 	nop
   80af0:	d503201f 	nop
   80af4:	d503201f 	nop
   80af8:	d503201f 	nop
   80afc:	d503201f 	nop
   80b00:	140001f7 	b	812dc <exit_300>
   80b04:	d503201f 	nop
   80b08:	d503201f 	nop
   80b0c:	d503201f 	nop
   80b10:	d503201f 	nop
   80b14:	d503201f 	nop
   80b18:	d503201f 	nop
   80b1c:	d503201f 	nop
   80b20:	d503201f 	nop
   80b24:	d503201f 	nop
   80b28:	d503201f 	nop
   80b2c:	d503201f 	nop
   80b30:	d503201f 	nop
   80b34:	d503201f 	nop
   80b38:	d503201f 	nop
   80b3c:	d503201f 	nop
   80b40:	d503201f 	nop
   80b44:	d503201f 	nop
   80b48:	d503201f 	nop
   80b4c:	d503201f 	nop
   80b50:	d503201f 	nop
   80b54:	d503201f 	nop
   80b58:	d503201f 	nop
   80b5c:	d503201f 	nop
   80b60:	d503201f 	nop
   80b64:	d503201f 	nop
   80b68:	d503201f 	nop
   80b6c:	d503201f 	nop
   80b70:	d503201f 	nop
   80b74:	d503201f 	nop
   80b78:	d503201f 	nop
   80b7c:	d503201f 	nop
   80b80:	140001dd 	b	812f4 <exit_380>
   80b84:	d503201f 	nop
   80b88:	d503201f 	nop
   80b8c:	d503201f 	nop
   80b90:	d503201f 	nop
   80b94:	d503201f 	nop
   80b98:	d503201f 	nop
   80b9c:	d503201f 	nop
   80ba0:	d503201f 	nop
   80ba4:	d503201f 	nop
   80ba8:	d503201f 	nop
   80bac:	d503201f 	nop
   80bb0:	d503201f 	nop
   80bb4:	d503201f 	nop
   80bb8:	d503201f 	nop
   80bbc:	d503201f 	nop
   80bc0:	d503201f 	nop
   80bc4:	d503201f 	nop
   80bc8:	d503201f 	nop
   80bcc:	d503201f 	nop
   80bd0:	d503201f 	nop
   80bd4:	d503201f 	nop
   80bd8:	d503201f 	nop
   80bdc:	d503201f 	nop
   80be0:	d503201f 	nop
   80be4:	d503201f 	nop
   80be8:	d503201f 	nop
   80bec:	d503201f 	nop
   80bf0:	d503201f 	nop
   80bf4:	d503201f 	nop
   80bf8:	d503201f 	nop
   80bfc:	d503201f 	nop
   80c00:	17fffd35 	b	800d4 <exception_handler>
   80c04:	d503201f 	nop
   80c08:	d503201f 	nop
   80c0c:	d503201f 	nop
   80c10:	d503201f 	nop
   80c14:	d503201f 	nop
   80c18:	d503201f 	nop
   80c1c:	d503201f 	nop
   80c20:	d503201f 	nop
   80c24:	d503201f 	nop
   80c28:	d503201f 	nop
   80c2c:	d503201f 	nop
   80c30:	d503201f 	nop
   80c34:	d503201f 	nop
   80c38:	d503201f 	nop
   80c3c:	d503201f 	nop
   80c40:	d503201f 	nop
   80c44:	d503201f 	nop
   80c48:	d503201f 	nop
   80c4c:	d503201f 	nop
   80c50:	d503201f 	nop
   80c54:	d503201f 	nop
   80c58:	d503201f 	nop
   80c5c:	d503201f 	nop
   80c60:	d503201f 	nop
   80c64:	d503201f 	nop
   80c68:	d503201f 	nop
   80c6c:	d503201f 	nop
   80c70:	d503201f 	nop
   80c74:	d503201f 	nop
   80c78:	d503201f 	nop
   80c7c:	d503201f 	nop
   80c80:	17fffd66 	b	80218 <usr_irq_source_determine>
   80c84:	d503201f 	nop
   80c88:	d503201f 	nop
   80c8c:	d503201f 	nop
   80c90:	d503201f 	nop
   80c94:	d503201f 	nop
   80c98:	d503201f 	nop
   80c9c:	d503201f 	nop
   80ca0:	d503201f 	nop
   80ca4:	d503201f 	nop
   80ca8:	d503201f 	nop
   80cac:	d503201f 	nop
   80cb0:	d503201f 	nop
   80cb4:	d503201f 	nop
   80cb8:	d503201f 	nop
   80cbc:	d503201f 	nop
   80cc0:	d503201f 	nop
   80cc4:	d503201f 	nop
   80cc8:	d503201f 	nop
   80ccc:	d503201f 	nop
   80cd0:	d503201f 	nop
   80cd4:	d503201f 	nop
   80cd8:	d503201f 	nop
   80cdc:	d503201f 	nop
   80ce0:	d503201f 	nop
   80ce4:	d503201f 	nop
   80ce8:	d503201f 	nop
   80cec:	d503201f 	nop
   80cf0:	d503201f 	nop
   80cf4:	d503201f 	nop
   80cf8:	d503201f 	nop
   80cfc:	d503201f 	nop
   80d00:	1400018f 	b	8133c <exit_500>
   80d04:	d503201f 	nop
   80d08:	d503201f 	nop
   80d0c:	d503201f 	nop
   80d10:	d503201f 	nop
   80d14:	d503201f 	nop
   80d18:	d503201f 	nop
   80d1c:	d503201f 	nop
   80d20:	d503201f 	nop
   80d24:	d503201f 	nop
   80d28:	d503201f 	nop
   80d2c:	d503201f 	nop
   80d30:	d503201f 	nop
   80d34:	d503201f 	nop
   80d38:	d503201f 	nop
   80d3c:	d503201f 	nop
   80d40:	d503201f 	nop
   80d44:	d503201f 	nop
   80d48:	d503201f 	nop
   80d4c:	d503201f 	nop
   80d50:	d503201f 	nop
   80d54:	d503201f 	nop
   80d58:	d503201f 	nop
   80d5c:	d503201f 	nop
   80d60:	d503201f 	nop
   80d64:	d503201f 	nop
   80d68:	d503201f 	nop
   80d6c:	d503201f 	nop
   80d70:	d503201f 	nop
   80d74:	d503201f 	nop
   80d78:	d503201f 	nop
   80d7c:	d503201f 	nop
   80d80:	14000175 	b	81354 <exit_580>
   80d84:	d503201f 	nop
   80d88:	d503201f 	nop
   80d8c:	d503201f 	nop
   80d90:	d503201f 	nop
   80d94:	d503201f 	nop
   80d98:	d503201f 	nop
   80d9c:	d503201f 	nop
   80da0:	d503201f 	nop
   80da4:	d503201f 	nop
   80da8:	d503201f 	nop
   80dac:	d503201f 	nop
   80db0:	d503201f 	nop
   80db4:	d503201f 	nop
   80db8:	d503201f 	nop
   80dbc:	d503201f 	nop
   80dc0:	d503201f 	nop
   80dc4:	d503201f 	nop
   80dc8:	d503201f 	nop
   80dcc:	d503201f 	nop
   80dd0:	d503201f 	nop
   80dd4:	d503201f 	nop
   80dd8:	d503201f 	nop
   80ddc:	d503201f 	nop
   80de0:	d503201f 	nop
   80de4:	d503201f 	nop
   80de8:	d503201f 	nop
   80dec:	d503201f 	nop
   80df0:	d503201f 	nop
   80df4:	d503201f 	nop
   80df8:	d503201f 	nop
   80dfc:	d503201f 	nop
   80e00:	1400010d 	b	81234 <exit>
   80e04:	d503201f 	nop
   80e08:	d503201f 	nop
   80e0c:	d503201f 	nop
   80e10:	d503201f 	nop
   80e14:	d503201f 	nop
   80e18:	d503201f 	nop
   80e1c:	d503201f 	nop
   80e20:	d503201f 	nop
   80e24:	d503201f 	nop
   80e28:	d503201f 	nop
   80e2c:	d503201f 	nop
   80e30:	d503201f 	nop
   80e34:	d503201f 	nop
   80e38:	d503201f 	nop
   80e3c:	d503201f 	nop
   80e40:	d503201f 	nop
   80e44:	d503201f 	nop
   80e48:	d503201f 	nop
   80e4c:	d503201f 	nop
   80e50:	d503201f 	nop
   80e54:	d503201f 	nop
   80e58:	d503201f 	nop
   80e5c:	d503201f 	nop
   80e60:	d503201f 	nop
   80e64:	d503201f 	nop
   80e68:	d503201f 	nop
   80e6c:	d503201f 	nop
   80e70:	d503201f 	nop
   80e74:	d503201f 	nop
   80e78:	d503201f 	nop
   80e7c:	d503201f 	nop
   80e80:	140000ed 	b	81234 <exit>
   80e84:	d503201f 	nop
   80e88:	d503201f 	nop
   80e8c:	d503201f 	nop
   80e90:	d503201f 	nop
   80e94:	d503201f 	nop
   80e98:	d503201f 	nop
   80e9c:	d503201f 	nop
   80ea0:	d503201f 	nop
   80ea4:	d503201f 	nop
   80ea8:	d503201f 	nop
   80eac:	d503201f 	nop
   80eb0:	d503201f 	nop
   80eb4:	d503201f 	nop
   80eb8:	d503201f 	nop
   80ebc:	d503201f 	nop
   80ec0:	d503201f 	nop
   80ec4:	d503201f 	nop
   80ec8:	d503201f 	nop
   80ecc:	d503201f 	nop
   80ed0:	d503201f 	nop
   80ed4:	d503201f 	nop
   80ed8:	d503201f 	nop
   80edc:	d503201f 	nop
   80ee0:	d503201f 	nop
   80ee4:	d503201f 	nop
   80ee8:	d503201f 	nop
   80eec:	d503201f 	nop
   80ef0:	d503201f 	nop
   80ef4:	d503201f 	nop
   80ef8:	d503201f 	nop
   80efc:	d503201f 	nop
   80f00:	140000cd 	b	81234 <exit>
   80f04:	d503201f 	nop
   80f08:	d503201f 	nop
   80f0c:	d503201f 	nop
   80f10:	d503201f 	nop
   80f14:	d503201f 	nop
   80f18:	d503201f 	nop
   80f1c:	d503201f 	nop
   80f20:	d503201f 	nop
   80f24:	d503201f 	nop
   80f28:	d503201f 	nop
   80f2c:	d503201f 	nop
   80f30:	d503201f 	nop
   80f34:	d503201f 	nop
   80f38:	d503201f 	nop
   80f3c:	d503201f 	nop
   80f40:	d503201f 	nop
   80f44:	d503201f 	nop
   80f48:	d503201f 	nop
   80f4c:	d503201f 	nop
   80f50:	d503201f 	nop
   80f54:	d503201f 	nop
   80f58:	d503201f 	nop
   80f5c:	d503201f 	nop
   80f60:	d503201f 	nop
   80f64:	d503201f 	nop
   80f68:	d503201f 	nop
   80f6c:	d503201f 	nop
   80f70:	d503201f 	nop
   80f74:	d503201f 	nop
   80f78:	d503201f 	nop
   80f7c:	d503201f 	nop
   80f80:	140000ad 	b	81234 <exit>
   80f84:	d503201f 	nop
   80f88:	d503201f 	nop
   80f8c:	d503201f 	nop
   80f90:	d503201f 	nop
   80f94:	d503201f 	nop
   80f98:	d503201f 	nop
   80f9c:	d503201f 	nop
   80fa0:	d503201f 	nop
   80fa4:	d503201f 	nop
   80fa8:	d503201f 	nop
   80fac:	d503201f 	nop
   80fb0:	d503201f 	nop
   80fb4:	d503201f 	nop
   80fb8:	d503201f 	nop
   80fbc:	d503201f 	nop
   80fc0:	d503201f 	nop
   80fc4:	d503201f 	nop
   80fc8:	d503201f 	nop
   80fcc:	d503201f 	nop
   80fd0:	d503201f 	nop
   80fd4:	d503201f 	nop
   80fd8:	d503201f 	nop
   80fdc:	d503201f 	nop
   80fe0:	d503201f 	nop
   80fe4:	d503201f 	nop
   80fe8:	d503201f 	nop
   80fec:	d503201f 	nop
   80ff0:	d503201f 	nop
   80ff4:	d503201f 	nop
   80ff8:	d503201f 	nop
   80ffc:	d503201f 	nop
   81000:	000000ee 	.word	0x000000ee
   81004:	00000000 	.inst	0x00000000 ; undefined
   81008:	40000040 	.word	0x40000040
   8100c:	00000000 	.word	0x00000000
   81010:	00080000 	.word	0x00080000
   81014:	00000000 	.word	0x00000000
   81018:	00084eb0 	.word	0x00084eb0
   8101c:	00000000 	.word	0x00000000
   81020:	40000060 	.word	0x40000060
   81024:	00000000 	.word	0x00000000

0000000000081028 <set_start_time>:
   81028:	f81f0ff3 	str	x19, [sp, #-16]!
   8102c:	d53be020 	mrs	x0, cntpct_el0
   81030:	2a0003f3 	mov	w19, w0
   81034:	93407e61 	sxtw	x1, w19
   81038:	f0000000 	adrp	x0, 84000 <list_del+0x40>
   8103c:	f9471400 	ldr	x0, [x0, #3624]
   81040:	f9000001 	str	x1, [x0]
   81044:	d503201f 	nop
   81048:	f84107f3 	ldr	x19, [sp], #16
   8104c:	d65f03c0 	ret

0000000000081050 <print_sec>:
   81050:	d10083ff 	sub	sp, sp, #0x20
   81054:	d53be000 	mrs	x0, cntfrq_el0
   81058:	b9001fe0 	str	w0, [sp, #28]
   8105c:	d53be020 	mrs	x0, cntpct_el0
   81060:	f9000be0 	str	x0, [sp, #16]
   81064:	f0000000 	adrp	x0, 84000 <list_del+0x40>
   81068:	f9471400 	ldr	x0, [x0, #3624]
   8106c:	f9400000 	ldr	x0, [x0]
   81070:	f9400be1 	ldr	x1, [sp, #16]
   81074:	cb000021 	sub	x1, x1, x0
   81078:	b9401fe0 	ldr	w0, [sp, #28]
   8107c:	9ac00820 	udiv	x0, x1, x0
   81080:	f90007e0 	str	x0, [sp, #8]
   81084:	d503201f 	nop
   81088:	910083ff 	add	sp, sp, #0x20
   8108c:	d65f03c0 	ret

0000000000081090 <simple_alloc>:
   81090:	d10083ff 	sub	sp, sp, #0x20
   81094:	f90007e0 	str	x0, [sp, #8]
   81098:	f0000000 	adrp	x0, 84000 <list_del+0x40>
   8109c:	9136b000 	add	x0, x0, #0xdac
   810a0:	b9400000 	ldr	w0, [x0]
   810a4:	2a0003e0 	mov	w0, w0
   810a8:	f9000fe0 	str	x0, [sp, #24]
   810ac:	f94007e0 	ldr	x0, [sp, #8]
   810b0:	2a0003e1 	mov	w1, w0
   810b4:	f0000000 	adrp	x0, 84000 <list_del+0x40>
   810b8:	9136b000 	add	x0, x0, #0xdac
   810bc:	b9400000 	ldr	w0, [x0]
   810c0:	0b000021 	add	w1, w1, w0
   810c4:	f0000000 	adrp	x0, 84000 <list_del+0x40>
   810c8:	9136b000 	add	x0, x0, #0xdac
   810cc:	b9000001 	str	w1, [x0]
   810d0:	f0000000 	adrp	x0, 84000 <list_del+0x40>
   810d4:	9136b000 	add	x0, x0, #0xdac
   810d8:	b9400000 	ldr	w0, [x0]
   810dc:	11003c00 	add	w0, w0, #0xf
   810e0:	121c6c01 	and	w1, w0, #0xfffffff0
   810e4:	f0000000 	adrp	x0, 84000 <list_del+0x40>
   810e8:	9136b000 	add	x0, x0, #0xdac
   810ec:	b9000001 	str	w1, [x0]
   810f0:	f9400fe0 	ldr	x0, [sp, #24]
   810f4:	910083ff 	add	sp, sp, #0x20
   810f8:	d65f03c0 	ret

00000000000810fc <atoi>:
   810fc:	d10083ff 	sub	sp, sp, #0x20
   81100:	f90007e0 	str	x0, [sp, #8]
   81104:	14000004 	b	81114 <atoi+0x18>
   81108:	f94007e0 	ldr	x0, [sp, #8]
   8110c:	91000400 	add	x0, x0, #0x1
   81110:	f90007e0 	str	x0, [sp, #8]
   81114:	f94007e0 	ldr	x0, [sp, #8]
   81118:	39400000 	ldrb	w0, [x0]
   8111c:	7100801f 	cmp	w0, #0x20
   81120:	54ffff40 	b.eq	81108 <atoi+0xc>  // b.none
   81124:	f94007e0 	ldr	x0, [sp, #8]
   81128:	39400000 	ldrb	w0, [x0]
   8112c:	7100241f 	cmp	w0, #0x9
   81130:	54fffec0 	b.eq	81108 <atoi+0xc>  // b.none
   81134:	f94007e0 	ldr	x0, [sp, #8]
   81138:	39400000 	ldrb	w0, [x0]
   8113c:	7100b41f 	cmp	w0, #0x2d
   81140:	540000e1 	b.ne	8115c <atoi+0x60>  // b.any
   81144:	12800000 	mov	w0, #0xffffffff            	// #-1
   81148:	b9001be0 	str	w0, [sp, #24]
   8114c:	f94007e0 	ldr	x0, [sp, #8]
   81150:	91000400 	add	x0, x0, #0x1
   81154:	f90007e0 	str	x0, [sp, #8]
   81158:	14000003 	b	81164 <atoi+0x68>
   8115c:	52800020 	mov	w0, #0x1                   	// #1
   81160:	b9001be0 	str	w0, [sp, #24]
   81164:	f94007e0 	ldr	x0, [sp, #8]
   81168:	39400000 	ldrb	w0, [x0]
   8116c:	7100bc1f 	cmp	w0, #0x2f
   81170:	540001a9 	b.ls	811a4 <atoi+0xa8>  // b.plast
   81174:	f94007e0 	ldr	x0, [sp, #8]
   81178:	39400000 	ldrb	w0, [x0]
   8117c:	7100e41f 	cmp	w0, #0x39
   81180:	54000128 	b.hi	811a4 <atoi+0xa8>  // b.pmore
   81184:	f94007e0 	ldr	x0, [sp, #8]
   81188:	39400000 	ldrb	w0, [x0]
   8118c:	5100c000 	sub	w0, w0, #0x30
   81190:	b9001fe0 	str	w0, [sp, #28]
   81194:	f94007e0 	ldr	x0, [sp, #8]
   81198:	91000400 	add	x0, x0, #0x1
   8119c:	f90007e0 	str	x0, [sp, #8]
   811a0:	1400001c 	b	81210 <atoi+0x114>
   811a4:	52800000 	mov	w0, #0x0                   	// #0
   811a8:	14000021 	b	8122c <atoi+0x130>
   811ac:	f94007e0 	ldr	x0, [sp, #8]
   811b0:	39400000 	ldrb	w0, [x0]
   811b4:	7100bc1f 	cmp	w0, #0x2f
   811b8:	54000289 	b.ls	81208 <atoi+0x10c>  // b.plast
   811bc:	f94007e0 	ldr	x0, [sp, #8]
   811c0:	39400000 	ldrb	w0, [x0]
   811c4:	7100e41f 	cmp	w0, #0x39
   811c8:	54000208 	b.hi	81208 <atoi+0x10c>  // b.pmore
   811cc:	b9401fe1 	ldr	w1, [sp, #28]
   811d0:	2a0103e0 	mov	w0, w1
   811d4:	531e7400 	lsl	w0, w0, #2
   811d8:	0b010000 	add	w0, w0, w1
   811dc:	531f7800 	lsl	w0, w0, #1
   811e0:	2a0003e1 	mov	w1, w0
   811e4:	f94007e0 	ldr	x0, [sp, #8]
   811e8:	39400000 	ldrb	w0, [x0]
   811ec:	5100c000 	sub	w0, w0, #0x30
   811f0:	0b000020 	add	w0, w1, w0
   811f4:	b9001fe0 	str	w0, [sp, #28]
   811f8:	f94007e0 	ldr	x0, [sp, #8]
   811fc:	91000400 	add	x0, x0, #0x1
   81200:	f90007e0 	str	x0, [sp, #8]
   81204:	14000003 	b	81210 <atoi+0x114>
   81208:	52800000 	mov	w0, #0x0                   	// #0
   8120c:	14000008 	b	8122c <atoi+0x130>
   81210:	f94007e0 	ldr	x0, [sp, #8]
   81214:	39400000 	ldrb	w0, [x0]
   81218:	7100001f 	cmp	w0, #0x0
   8121c:	54fffc81 	b.ne	811ac <atoi+0xb0>  // b.any
   81220:	b9401fe1 	ldr	w1, [sp, #28]
   81224:	b9401be0 	ldr	w0, [sp, #24]
   81228:	1b007c20 	mul	w0, w1, w0
   8122c:	910083ff 	add	sp, sp, #0x20
   81230:	d65f03c0 	ret

0000000000081234 <exit>:
   81234:	a9bf7bfd 	stp	x29, x30, [sp, #-16]!
   81238:	910003fd 	mov	x29, sp
   8123c:	f0000000 	adrp	x0, 84000 <list_del+0x40>
   81240:	91110000 	add	x0, x0, #0x440
   81244:	9400024e 	bl	81b7c <sync_uart_puts>
   81248:	14000000 	b	81248 <exit+0x14>

000000000008124c <exit_000>:
   8124c:	a9bf7bfd 	stp	x29, x30, [sp, #-16]!
   81250:	910003fd 	mov	x29, sp
   81254:	f0000000 	adrp	x0, 84000 <list_del+0x40>
   81258:	91112000 	add	x0, x0, #0x448
   8125c:	94000248 	bl	81b7c <sync_uart_puts>
   81260:	14000000 	b	81260 <exit_000+0x14>

0000000000081264 <exit_080>:
   81264:	a9bf7bfd 	stp	x29, x30, [sp, #-16]!
   81268:	910003fd 	mov	x29, sp
   8126c:	f0000000 	adrp	x0, 84000 <list_del+0x40>
   81270:	91116000 	add	x0, x0, #0x458
   81274:	94000242 	bl	81b7c <sync_uart_puts>
   81278:	14000000 	b	81278 <exit_080+0x14>

000000000008127c <exit_100>:
   8127c:	a9bf7bfd 	stp	x29, x30, [sp, #-16]!
   81280:	910003fd 	mov	x29, sp
   81284:	f0000000 	adrp	x0, 84000 <list_del+0x40>
   81288:	9111a000 	add	x0, x0, #0x468
   8128c:	9400023c 	bl	81b7c <sync_uart_puts>
   81290:	14000000 	b	81290 <exit_100+0x14>

0000000000081294 <exit_180>:
   81294:	a9bf7bfd 	stp	x29, x30, [sp, #-16]!
   81298:	910003fd 	mov	x29, sp
   8129c:	f0000000 	adrp	x0, 84000 <list_del+0x40>
   812a0:	9111e000 	add	x0, x0, #0x478
   812a4:	94000236 	bl	81b7c <sync_uart_puts>
   812a8:	14000000 	b	812a8 <exit_180+0x14>

00000000000812ac <exit_200>:
   812ac:	a9bf7bfd 	stp	x29, x30, [sp, #-16]!
   812b0:	910003fd 	mov	x29, sp
   812b4:	f0000000 	adrp	x0, 84000 <list_del+0x40>
   812b8:	91122000 	add	x0, x0, #0x488
   812bc:	94000230 	bl	81b7c <sync_uart_puts>
   812c0:	14000000 	b	812c0 <exit_200+0x14>

00000000000812c4 <exit_280>:
   812c4:	a9bf7bfd 	stp	x29, x30, [sp, #-16]!
   812c8:	910003fd 	mov	x29, sp
   812cc:	f0000000 	adrp	x0, 84000 <list_del+0x40>
   812d0:	91126000 	add	x0, x0, #0x498
   812d4:	9400022a 	bl	81b7c <sync_uart_puts>
   812d8:	14000000 	b	812d8 <exit_280+0x14>

00000000000812dc <exit_300>:
   812dc:	a9bf7bfd 	stp	x29, x30, [sp, #-16]!
   812e0:	910003fd 	mov	x29, sp
   812e4:	f0000000 	adrp	x0, 84000 <list_del+0x40>
   812e8:	9112a000 	add	x0, x0, #0x4a8
   812ec:	94000224 	bl	81b7c <sync_uart_puts>
   812f0:	14000000 	b	812f0 <exit_300+0x14>

00000000000812f4 <exit_380>:
   812f4:	a9bf7bfd 	stp	x29, x30, [sp, #-16]!
   812f8:	910003fd 	mov	x29, sp
   812fc:	f0000000 	adrp	x0, 84000 <list_del+0x40>
   81300:	9112e000 	add	x0, x0, #0x4b8
   81304:	9400021e 	bl	81b7c <sync_uart_puts>
   81308:	14000000 	b	81308 <exit_380+0x14>

000000000008130c <exit_400>:
   8130c:	a9bf7bfd 	stp	x29, x30, [sp, #-16]!
   81310:	910003fd 	mov	x29, sp
   81314:	f0000000 	adrp	x0, 84000 <list_del+0x40>
   81318:	91132000 	add	x0, x0, #0x4c8
   8131c:	94000218 	bl	81b7c <sync_uart_puts>
   81320:	14000000 	b	81320 <exit_400+0x14>

0000000000081324 <exit_480>:
   81324:	a9bf7bfd 	stp	x29, x30, [sp, #-16]!
   81328:	910003fd 	mov	x29, sp
   8132c:	f0000000 	adrp	x0, 84000 <list_del+0x40>
   81330:	91136000 	add	x0, x0, #0x4d8
   81334:	94000212 	bl	81b7c <sync_uart_puts>
   81338:	14000000 	b	81338 <exit_480+0x14>

000000000008133c <exit_500>:
   8133c:	a9bf7bfd 	stp	x29, x30, [sp, #-16]!
   81340:	910003fd 	mov	x29, sp
   81344:	f0000000 	adrp	x0, 84000 <list_del+0x40>
   81348:	9113a000 	add	x0, x0, #0x4e8
   8134c:	9400020c 	bl	81b7c <sync_uart_puts>
   81350:	14000000 	b	81350 <exit_500+0x14>

0000000000081354 <exit_580>:
   81354:	a9bf7bfd 	stp	x29, x30, [sp, #-16]!
   81358:	910003fd 	mov	x29, sp
   8135c:	f0000000 	adrp	x0, 84000 <list_del+0x40>
   81360:	9113e000 	add	x0, x0, #0x4f8
   81364:	94000206 	bl	81b7c <sync_uart_puts>
   81368:	14000000 	b	81368 <exit_580+0x14>

000000000008136c <read_dtb32>:
   8136c:	a9bd7bfd 	stp	x29, x30, [sp, #-48]!
   81370:	910003fd 	mov	x29, sp
   81374:	f9000fe0 	str	x0, [sp, #24]
   81378:	f9400fe0 	ldr	x0, [sp, #24]
   8137c:	f9400000 	ldr	x0, [x0]
   81380:	91001002 	add	x2, x0, #0x4
   81384:	f9400fe1 	ldr	x1, [sp, #24]
   81388:	f9000022 	str	x2, [x1]
   8138c:	b9400000 	ldr	w0, [x0]
   81390:	b9002fe0 	str	w0, [sp, #44]
   81394:	9100b3e0 	add	x0, sp, #0x2c
   81398:	94000060 	bl	81518 <big2little>
   8139c:	b9402fe0 	ldr	w0, [sp, #44]
   813a0:	a8c37bfd 	ldp	x29, x30, [sp], #48
   813a4:	d65f03c0 	ret

00000000000813a8 <print_height>:
   813a8:	a9be7bfd 	stp	x29, x30, [sp, #-32]!
   813ac:	910003fd 	mov	x29, sp
   813b0:	b9001fe0 	str	w0, [sp, #28]
   813b4:	14000007 	b	813d0 <print_height+0x28>
   813b8:	f0000000 	adrp	x0, 84000 <list_del+0x40>
   813bc:	91142000 	add	x0, x0, #0x508
   813c0:	940001ad 	bl	81a74 <uart_puts>
   813c4:	b9401fe0 	ldr	w0, [sp, #28]
   813c8:	51000400 	sub	w0, w0, #0x1
   813cc:	b9001fe0 	str	w0, [sp, #28]
   813d0:	b9401fe0 	ldr	w0, [sp, #28]
   813d4:	7100001f 	cmp	w0, #0x0
   813d8:	54ffff0c 	b.gt	813b8 <print_height+0x10>
   813dc:	d503201f 	nop
   813e0:	a8c27bfd 	ldp	x29, x30, [sp], #32
   813e4:	d65f03c0 	ret

00000000000813e8 <print_prop_value>:
   813e8:	a9bd7bfd 	stp	x29, x30, [sp, #-48]!
   813ec:	910003fd 	mov	x29, sp
   813f0:	f9000fe0 	str	x0, [sp, #24]
   813f4:	b90017e1 	str	w1, [sp, #20]
   813f8:	b9002fff 	str	wzr, [sp, #44]
   813fc:	b9002bff 	str	wzr, [sp, #40]
   81400:	14000018 	b	81460 <print_prop_value+0x78>
   81404:	f9400fe1 	ldr	x1, [sp, #24]
   81408:	b9802be0 	ldrsw	x0, [sp, #40]
   8140c:	8b000020 	add	x0, x1, x0
   81410:	39400000 	ldrb	w0, [x0]
   81414:	71007c1f 	cmp	w0, #0x1f
   81418:	540000e9 	b.ls	81434 <print_prop_value+0x4c>  // b.plast
   8141c:	f9400fe1 	ldr	x1, [sp, #24]
   81420:	b9802be0 	ldrsw	x0, [sp, #40]
   81424:	8b000020 	add	x0, x1, x0
   81428:	39400000 	ldrb	w0, [x0]
   8142c:	7101f81f 	cmp	w0, #0x7e
   81430:	54000129 	b.ls	81454 <print_prop_value+0x6c>  // b.plast
   81434:	f9400fe1 	ldr	x1, [sp, #24]
   81438:	b9802be0 	ldrsw	x0, [sp, #40]
   8143c:	8b000020 	add	x0, x1, x0
   81440:	39400000 	ldrb	w0, [x0]
   81444:	7100001f 	cmp	w0, #0x0
   81448:	54000060 	b.eq	81454 <print_prop_value+0x6c>  // b.none
   8144c:	52800020 	mov	w0, #0x1                   	// #1
   81450:	b9002fe0 	str	w0, [sp, #44]
   81454:	b9402be0 	ldr	w0, [sp, #40]
   81458:	11000400 	add	w0, w0, #0x1
   8145c:	b9002be0 	str	w0, [sp, #40]
   81460:	b9402be1 	ldr	w1, [sp, #40]
   81464:	b94017e0 	ldr	w0, [sp, #20]
   81468:	6b00003f 	cmp	w1, w0
   8146c:	54fffccb 	b.lt	81404 <print_prop_value+0x1c>  // b.tstop
   81470:	b9402fe0 	ldr	w0, [sp, #44]
   81474:	7100001f 	cmp	w0, #0x0
   81478:	54000440 	b.eq	81500 <print_prop_value+0x118>  // b.none
   8147c:	b94017e0 	ldr	w0, [sp, #20]
   81480:	7100101f 	cmp	w0, #0x4
   81484:	54000141 	b.ne	814ac <print_prop_value+0xc4>  // b.any
   81488:	910063e0 	add	x0, sp, #0x18
   8148c:	97ffffb8 	bl	8136c <read_dtb32>
   81490:	b90027e0 	str	w0, [sp, #36]
   81494:	f0000000 	adrp	x0, 84000 <list_del+0x40>
   81498:	91144000 	add	x0, x0, #0x510
   8149c:	94000176 	bl	81a74 <uart_puts>
   814a0:	b94027e0 	ldr	w0, [sp, #36]
   814a4:	940001cc 	bl	81bd4 <uart_hex>
   814a8:	14000019 	b	8150c <print_prop_value+0x124>
   814ac:	f0000000 	adrp	x0, 84000 <list_del+0x40>
   814b0:	91146000 	add	x0, x0, #0x518
   814b4:	94000170 	bl	81a74 <uart_puts>
   814b8:	14000015 	b	8150c <print_prop_value+0x124>
   814bc:	f9400fe0 	ldr	x0, [sp, #24]
   814c0:	39400000 	ldrb	w0, [x0]
   814c4:	7100001f 	cmp	w0, #0x0
   814c8:	540000a1 	b.ne	814dc <print_prop_value+0xf4>  // b.any
   814cc:	f0000000 	adrp	x0, 84000 <list_del+0x40>
   814d0:	91148000 	add	x0, x0, #0x520
   814d4:	94000168 	bl	81a74 <uart_puts>
   814d8:	14000004 	b	814e8 <print_prop_value+0x100>
   814dc:	f9400fe0 	ldr	x0, [sp, #24]
   814e0:	39400000 	ldrb	w0, [x0]
   814e4:	94000145 	bl	819f8 <uart_send>
   814e8:	b94017e0 	ldr	w0, [sp, #20]
   814ec:	51000400 	sub	w0, w0, #0x1
   814f0:	b90017e0 	str	w0, [sp, #20]
   814f4:	f9400fe0 	ldr	x0, [sp, #24]
   814f8:	91000400 	add	x0, x0, #0x1
   814fc:	f9000fe0 	str	x0, [sp, #24]
   81500:	b94017e0 	ldr	w0, [sp, #20]
   81504:	7100041f 	cmp	w0, #0x1
   81508:	54fffdac 	b.gt	814bc <print_prop_value+0xd4>
   8150c:	d503201f 	nop
   81510:	a8c37bfd 	ldp	x29, x30, [sp], #48
   81514:	d65f03c0 	ret

0000000000081518 <big2little>:
   81518:	d10043ff 	sub	sp, sp, #0x10
   8151c:	f90007e0 	str	x0, [sp, #8]
   81520:	f94007e0 	ldr	x0, [sp, #8]
   81524:	b9400000 	ldr	w0, [x0]
   81528:	53187c01 	lsr	w1, w0, #24
   8152c:	f94007e0 	ldr	x0, [sp, #8]
   81530:	b9400000 	ldr	w0, [x0]
   81534:	53185c00 	lsl	w0, w0, #8
   81538:	12101c00 	and	w0, w0, #0xff0000
   8153c:	2a000021 	orr	w1, w1, w0
   81540:	f94007e0 	ldr	x0, [sp, #8]
   81544:	b9400000 	ldr	w0, [x0]
   81548:	53087c00 	lsr	w0, w0, #8
   8154c:	12181c00 	and	w0, w0, #0xff00
   81550:	2a000021 	orr	w1, w1, w0
   81554:	f94007e0 	ldr	x0, [sp, #8]
   81558:	b9400000 	ldr	w0, [x0]
   8155c:	53081c00 	lsl	w0, w0, #24
   81560:	2a000021 	orr	w1, w1, w0
   81564:	f94007e0 	ldr	x0, [sp, #8]
   81568:	b9000001 	str	w1, [x0]
   8156c:	d503201f 	nop
   81570:	910043ff 	add	sp, sp, #0x10
   81574:	d65f03c0 	ret

0000000000081578 <read_fdt_header>:
   81578:	a9bd7bfd 	stp	x29, x30, [sp, #-48]!
   8157c:	910003fd 	mov	x29, sp
   81580:	f9000fe0 	str	x0, [sp, #24]
   81584:	f9000be1 	str	x1, [sp, #16]
   81588:	d2800502 	mov	x2, #0x28                  	// #40
   8158c:	f9400be1 	ldr	x1, [sp, #16]
   81590:	f9400fe0 	ldr	x0, [sp, #24]
   81594:	94000291 	bl	81fd8 <memcpy>
   81598:	b9002fff 	str	wzr, [sp, #44]
   8159c:	14000009 	b	815c0 <read_fdt_header+0x48>
   815a0:	f9400fe0 	ldr	x0, [sp, #24]
   815a4:	97ffffdd 	bl	81518 <big2little>
   815a8:	f9400fe0 	ldr	x0, [sp, #24]
   815ac:	91001000 	add	x0, x0, #0x4
   815b0:	f9000fe0 	str	x0, [sp, #24]
   815b4:	b9402fe0 	ldr	w0, [sp, #44]
   815b8:	11001000 	add	w0, w0, #0x4
   815bc:	b9002fe0 	str	w0, [sp, #44]
   815c0:	b9402fe0 	ldr	w0, [sp, #44]
   815c4:	71009c1f 	cmp	w0, #0x27
   815c8:	54fffec9 	b.ls	815a0 <read_fdt_header+0x28>  // b.plast
   815cc:	d503201f 	nop
   815d0:	a8c37bfd 	ldp	x29, x30, [sp], #48
   815d4:	d65f03c0 	ret

00000000000815d8 <dtb_parse>:
   815d8:	a9b97bfd 	stp	x29, x30, [sp, #-112]!
   815dc:	910003fd 	mov	x29, sp
   815e0:	f9000fe0 	str	x0, [sp, #24]
   815e4:	b9006fff 	str	wzr, [sp, #108]
   815e8:	f0000000 	adrp	x0, 84000 <list_del+0x40>
   815ec:	f9473000 	ldr	x0, [x0, #3680]
   815f0:	f9400001 	ldr	x1, [x0]
   815f4:	9100c3e0 	add	x0, sp, #0x30
   815f8:	97ffffe0 	bl	81578 <read_fdt_header>
   815fc:	f0000000 	adrp	x0, 84000 <list_del+0x40>
   81600:	f9473000 	ldr	x0, [x0, #3680]
   81604:	f9400001 	ldr	x1, [x0]
   81608:	b94037e0 	ldr	w0, [sp, #52]
   8160c:	2a0003e0 	mov	w0, w0
   81610:	8b000021 	add	x1, x1, x0
   81614:	f0000000 	adrp	x0, 84000 <list_del+0x40>
   81618:	f9473400 	ldr	x0, [x0, #3688]
   8161c:	f9000001 	str	x1, [x0]
   81620:	f0000000 	adrp	x0, 84000 <list_del+0x40>
   81624:	f9473000 	ldr	x0, [x0, #3680]
   81628:	f9400001 	ldr	x1, [x0]
   8162c:	b9403be0 	ldr	w0, [sp, #56]
   81630:	2a0003e0 	mov	w0, w0
   81634:	8b000020 	add	x0, x1, x0
   81638:	f90013e0 	str	x0, [sp, #32]
   8163c:	f0000000 	adrp	x0, 84000 <list_del+0x40>
   81640:	f9473000 	ldr	x0, [x0, #3680]
   81644:	f9400001 	ldr	x1, [x0]
   81648:	b9403fe0 	ldr	w0, [sp, #60]
   8164c:	2a0003e0 	mov	w0, w0
   81650:	8b000020 	add	x0, x1, x0
   81654:	f90033e0 	str	x0, [sp, #96]
   81658:	910083e0 	add	x0, sp, #0x20
   8165c:	97ffff44 	bl	8136c <read_dtb32>
   81660:	b9005fe0 	str	w0, [sp, #92]
   81664:	b9405fe0 	ldr	w0, [sp, #92]
   81668:	7100041f 	cmp	w0, #0x1
   8166c:	54000361 	b.ne	816d8 <dtb_parse+0x100>  // b.any
   81670:	b9406fe0 	ldr	w0, [sp, #108]
   81674:	11000400 	add	w0, w0, #0x1
   81678:	b9006fe0 	str	w0, [sp, #108]
   8167c:	f9400fe0 	ldr	x0, [sp, #24]
   81680:	f100001f 	cmp	x0, #0x0
   81684:	54000101 	b.ne	816a4 <dtb_parse+0xcc>  // b.any
   81688:	b9406fe0 	ldr	w0, [sp, #108]
   8168c:	97ffff47 	bl	813a8 <print_height>
   81690:	f94013e0 	ldr	x0, [sp, #32]
   81694:	940000f8 	bl	81a74 <uart_puts>
   81698:	f0000000 	adrp	x0, 84000 <list_del+0x40>
   8169c:	9114a000 	add	x0, x0, #0x528
   816a0:	940000f5 	bl	81a74 <uart_puts>
   816a4:	f94013e0 	ldr	x0, [sp, #32]
   816a8:	94000337 	bl	82384 <strlen>
   816ac:	11000400 	add	w0, w0, #0x1
   816b0:	f94013e1 	ldr	x1, [sp, #32]
   816b4:	93407c00 	sxtw	x0, w0
   816b8:	8b000020 	add	x0, x1, x0
   816bc:	f90013e0 	str	x0, [sp, #32]
   816c0:	f94013e0 	ldr	x0, [sp, #32]
   816c4:	11000c00 	add	w0, w0, #0x3
   816c8:	2a0003e0 	mov	w0, w0
   816cc:	927e7400 	and	x0, x0, #0xfffffffc
   816d0:	f90013e0 	str	x0, [sp, #32]
   816d4:	17ffffe1 	b	81658 <dtb_parse+0x80>
   816d8:	b9405fe0 	ldr	w0, [sp, #92]
   816dc:	7100081f 	cmp	w0, #0x2
   816e0:	540000a1 	b.ne	816f4 <dtb_parse+0x11c>  // b.any
   816e4:	b9406fe0 	ldr	w0, [sp, #108]
   816e8:	51000400 	sub	w0, w0, #0x1
   816ec:	b9006fe0 	str	w0, [sp, #108]
   816f0:	17ffffda 	b	81658 <dtb_parse+0x80>
   816f4:	b9405fe0 	ldr	w0, [sp, #92]
   816f8:	71000c1f 	cmp	w0, #0x3
   816fc:	54000761 	b.ne	817e8 <dtb_parse+0x210>  // b.any
   81700:	b9406fe0 	ldr	w0, [sp, #108]
   81704:	11000400 	add	w0, w0, #0x1
   81708:	b9006fe0 	str	w0, [sp, #108]
   8170c:	910083e0 	add	x0, sp, #0x20
   81710:	97ffff17 	bl	8136c <read_dtb32>
   81714:	b9002be0 	str	w0, [sp, #40]
   81718:	910083e0 	add	x0, sp, #0x20
   8171c:	97ffff14 	bl	8136c <read_dtb32>
   81720:	b9002fe0 	str	w0, [sp, #44]
   81724:	f9400fe0 	ldr	x0, [sp, #24]
   81728:	f100001f 	cmp	x0, #0x0
   8172c:	54000221 	b.ne	81770 <dtb_parse+0x198>  // b.any
   81730:	b9406fe0 	ldr	w0, [sp, #108]
   81734:	97ffff1d 	bl	813a8 <print_height>
   81738:	b9402fe0 	ldr	w0, [sp, #44]
   8173c:	2a0003e0 	mov	w0, w0
   81740:	f94033e1 	ldr	x1, [sp, #96]
   81744:	8b000020 	add	x0, x1, x0
   81748:	940000cb 	bl	81a74 <uart_puts>
   8174c:	f0000000 	adrp	x0, 84000 <list_del+0x40>
   81750:	9114c000 	add	x0, x0, #0x530
   81754:	940000c8 	bl	81a74 <uart_puts>
   81758:	f94013e0 	ldr	x0, [sp, #32]
   8175c:	b9402be1 	ldr	w1, [sp, #40]
   81760:	97ffff22 	bl	813e8 <print_prop_value>
   81764:	f0000000 	adrp	x0, 84000 <list_del+0x40>
   81768:	9114e000 	add	x0, x0, #0x538
   8176c:	940000c2 	bl	81a74 <uart_puts>
   81770:	910083e0 	add	x0, sp, #0x20
   81774:	97fffefe 	bl	8136c <read_dtb32>
   81778:	b9005be0 	str	w0, [sp, #88]
   8177c:	f94013e0 	ldr	x0, [sp, #32]
   81780:	d1001000 	sub	x0, x0, #0x4
   81784:	f90013e0 	str	x0, [sp, #32]
   81788:	f9400fe0 	ldr	x0, [sp, #24]
   8178c:	f100001f 	cmp	x0, #0x0
   81790:	54000100 	b.eq	817b0 <dtb_parse+0x1d8>  // b.none
   81794:	b9402fe0 	ldr	w0, [sp, #44]
   81798:	2a0003e0 	mov	w0, w0
   8179c:	f94033e1 	ldr	x1, [sp, #96]
   817a0:	8b000020 	add	x0, x1, x0
   817a4:	b9405be1 	ldr	w1, [sp, #88]
   817a8:	f9400fe2 	ldr	x2, [sp, #24]
   817ac:	d63f0040 	blr	x2
   817b0:	f94013e1 	ldr	x1, [sp, #32]
   817b4:	b9402be0 	ldr	w0, [sp, #40]
   817b8:	2a0003e0 	mov	w0, w0
   817bc:	8b000020 	add	x0, x1, x0
   817c0:	f90013e0 	str	x0, [sp, #32]
   817c4:	f94013e0 	ldr	x0, [sp, #32]
   817c8:	11000c00 	add	w0, w0, #0x3
   817cc:	2a0003e0 	mov	w0, w0
   817d0:	927e7400 	and	x0, x0, #0xfffffffc
   817d4:	f90013e0 	str	x0, [sp, #32]
   817d8:	b9406fe0 	ldr	w0, [sp, #108]
   817dc:	51000400 	sub	w0, w0, #0x1
   817e0:	b9006fe0 	str	w0, [sp, #108]
   817e4:	17ffff9d 	b	81658 <dtb_parse+0x80>
   817e8:	b9405fe0 	ldr	w0, [sp, #92]
   817ec:	7100101f 	cmp	w0, #0x4
   817f0:	54fff340 	b.eq	81658 <dtb_parse+0x80>  // b.none
   817f4:	b9405fe0 	ldr	w0, [sp, #92]
   817f8:	7100241f 	cmp	w0, #0x9
   817fc:	540001a0 	b.eq	81830 <dtb_parse+0x258>  // b.none
   81800:	f0000000 	adrp	x0, 84000 <list_del+0x40>
   81804:	91150000 	add	x0, x0, #0x540
   81808:	9400009b 	bl	81a74 <uart_puts>
   8180c:	b9405fe0 	ldr	w0, [sp, #92]
   81810:	940000f1 	bl	81bd4 <uart_hex>
   81814:	f0000000 	adrp	x0, 84000 <list_del+0x40>
   81818:	91156000 	add	x0, x0, #0x558
   8181c:	94000096 	bl	81a74 <uart_puts>
   81820:	f94013e0 	ldr	x0, [sp, #32]
   81824:	940000ec 	bl	81bd4 <uart_hex>
   81828:	97fffe83 	bl	81234 <exit>
   8182c:	17ffff8b 	b	81658 <dtb_parse+0x80>
   81830:	d503201f 	nop
   81834:	d503201f 	nop
   81838:	a8c77bfd 	ldp	x29, x30, [sp], #112
   8183c:	d65f03c0 	ret

0000000000081840 <uart_init>:
   81840:	f81f0ff3 	str	x19, [sp, #-16]!
   81844:	d2800080 	mov	x0, #0x4                   	// #4
   81848:	f2a7e400 	movk	x0, #0x3f20, lsl #16
   8184c:	b9400013 	ldr	w19, [x0]
   81850:	120e6673 	and	w19, w19, #0xfffc0fff
   81854:	52840000 	mov	w0, #0x2000                	// #8192
   81858:	72a00020 	movk	w0, #0x1, lsl #16
   8185c:	2a000273 	orr	w19, w19, w0
   81860:	d2800080 	mov	x0, #0x4                   	// #4
   81864:	f2a7e400 	movk	x0, #0x3f20, lsl #16
   81868:	b9000013 	str	w19, [x0]
   8186c:	d2801280 	mov	x0, #0x94                  	// #148
   81870:	f2a7e400 	movk	x0, #0x3f20, lsl #16
   81874:	b900001f 	str	wzr, [x0]
   81878:	528012d3 	mov	w19, #0x96                  	// #150
   8187c:	14000002 	b	81884 <uart_init+0x44>
   81880:	d503201f 	nop
   81884:	2a1303e0 	mov	w0, w19
   81888:	51000413 	sub	w19, w0, #0x1
   8188c:	7100001f 	cmp	w0, #0x0
   81890:	54ffff81 	b.ne	81880 <uart_init+0x40>  // b.any
   81894:	d2801300 	mov	x0, #0x98                  	// #152
   81898:	f2a7e400 	movk	x0, #0x3f20, lsl #16
   8189c:	52980001 	mov	w1, #0xc000                	// #49152
   818a0:	b9000001 	str	w1, [x0]
   818a4:	528012d3 	mov	w19, #0x96                  	// #150
   818a8:	14000002 	b	818b0 <uart_init+0x70>
   818ac:	d503201f 	nop
   818b0:	2a1303e0 	mov	w0, w19
   818b4:	51000413 	sub	w19, w0, #0x1
   818b8:	7100001f 	cmp	w0, #0x0
   818bc:	54ffff81 	b.ne	818ac <uart_init+0x6c>  // b.any
   818c0:	d2801300 	mov	x0, #0x98                  	// #152
   818c4:	f2a7e400 	movk	x0, #0x3f20, lsl #16
   818c8:	b900001f 	str	wzr, [x0]
   818cc:	d2964200 	mov	x0, #0xb210                	// #45584
   818d0:	f2a7e000 	movk	x0, #0x3f00, lsl #16
   818d4:	52a40001 	mov	w1, #0x20000000            	// #536870912
   818d8:	b9000001 	str	w1, [x0]
   818dc:	d28a0080 	mov	x0, #0x5004                	// #20484
   818e0:	f2a7e420 	movk	x0, #0x3f21, lsl #16
   818e4:	b9400001 	ldr	w1, [x0]
   818e8:	d28a0080 	mov	x0, #0x5004                	// #20484
   818ec:	f2a7e420 	movk	x0, #0x3f21, lsl #16
   818f0:	32000021 	orr	w1, w1, #0x1
   818f4:	b9000001 	str	w1, [x0]
   818f8:	d28a0880 	mov	x0, #0x5044                	// #20548
   818fc:	f2a7e420 	movk	x0, #0x3f21, lsl #16
   81900:	b900001f 	str	wzr, [x0]
   81904:	d28a0c00 	mov	x0, #0x5060                	// #20576
   81908:	f2a7e420 	movk	x0, #0x3f21, lsl #16
   8190c:	b900001f 	str	wzr, [x0]
   81910:	d28a0980 	mov	x0, #0x504c                	// #20556
   81914:	f2a7e420 	movk	x0, #0x3f21, lsl #16
   81918:	52800061 	mov	w1, #0x3                   	// #3
   8191c:	b9000001 	str	w1, [x0]
   81920:	d28a0a00 	mov	x0, #0x5050                	// #20560
   81924:	f2a7e420 	movk	x0, #0x3f21, lsl #16
   81928:	b900001f 	str	wzr, [x0]
   8192c:	d28a0880 	mov	x0, #0x5044                	// #20548
   81930:	f2a7e420 	movk	x0, #0x3f21, lsl #16
   81934:	52800021 	mov	w1, #0x1                   	// #1
   81938:	b9000001 	str	w1, [x0]
   8193c:	d28a0900 	mov	x0, #0x5048                	// #20552
   81940:	f2a7e420 	movk	x0, #0x3f21, lsl #16
   81944:	528018c1 	mov	w1, #0xc6                  	// #198
   81948:	b9000001 	str	w1, [x0]
   8194c:	d28a0d00 	mov	x0, #0x5068                	// #20584
   81950:	f2a7e420 	movk	x0, #0x3f21, lsl #16
   81954:	528021c1 	mov	w1, #0x10e                 	// #270
   81958:	b9000001 	str	w1, [x0]
   8195c:	d28a0c00 	mov	x0, #0x5060                	// #20576
   81960:	f2a7e420 	movk	x0, #0x3f21, lsl #16
   81964:	52800061 	mov	w1, #0x3                   	// #3
   81968:	b9000001 	str	w1, [x0]
   8196c:	f0000000 	adrp	x0, 84000 <list_del+0x40>
   81970:	f9472c00 	ldr	x0, [x0, #3672]
   81974:	b900001f 	str	wzr, [x0]
   81978:	1400000f 	b	819b4 <uart_init+0x174>
   8197c:	f0000000 	adrp	x0, 84000 <list_del+0x40>
   81980:	f9472c00 	ldr	x0, [x0, #3672]
   81984:	b9400002 	ldr	w2, [x0]
   81988:	f0000000 	adrp	x0, 84000 <list_del+0x40>
   8198c:	f9473801 	ldr	x1, [x0, #3696]
   81990:	2a0203e0 	mov	w0, w2
   81994:	3820683f 	strb	wzr, [x1, x0]
   81998:	f0000000 	adrp	x0, 84000 <list_del+0x40>
   8199c:	f9472c00 	ldr	x0, [x0, #3672]
   819a0:	b9400000 	ldr	w0, [x0]
   819a4:	11000401 	add	w1, w0, #0x1
   819a8:	f0000000 	adrp	x0, 84000 <list_del+0x40>
   819ac:	f9472c00 	ldr	x0, [x0, #3672]
   819b0:	b9000001 	str	w1, [x0]
   819b4:	f0000000 	adrp	x0, 84000 <list_del+0x40>
   819b8:	f9472c00 	ldr	x0, [x0, #3672]
   819bc:	b9400000 	ldr	w0, [x0]
   819c0:	7100fc1f 	cmp	w0, #0x3f
   819c4:	54fffdc9 	b.ls	8197c <uart_init+0x13c>  // b.plast
   819c8:	f0000000 	adrp	x0, 84000 <list_del+0x40>
   819cc:	f9472c00 	ldr	x0, [x0, #3672]
   819d0:	b900001f 	str	wzr, [x0]
   819d4:	f0000000 	adrp	x0, 84000 <list_del+0x40>
   819d8:	f9471000 	ldr	x0, [x0, #3616]
   819dc:	b900001f 	str	wzr, [x0]
   819e0:	f0000000 	adrp	x0, 84000 <list_del+0x40>
   819e4:	f9472000 	ldr	x0, [x0, #3648]
   819e8:	b900001f 	str	wzr, [x0]
   819ec:	d503201f 	nop
   819f0:	f84107f3 	ldr	x19, [sp], #16
   819f4:	d65f03c0 	ret

00000000000819f8 <uart_send>:
   819f8:	d10043ff 	sub	sp, sp, #0x10
   819fc:	b9000fe0 	str	w0, [sp, #12]
   81a00:	d503201f 	nop
   81a04:	d28a0a80 	mov	x0, #0x5054                	// #20564
   81a08:	f2a7e420 	movk	x0, #0x3f21, lsl #16
   81a0c:	b9400000 	ldr	w0, [x0]
   81a10:	121b0000 	and	w0, w0, #0x20
   81a14:	7100001f 	cmp	w0, #0x0
   81a18:	54ffff40 	b.eq	81a00 <uart_send+0x8>  // b.none
   81a1c:	d28a0800 	mov	x0, #0x5040                	// #20544
   81a20:	f2a7e420 	movk	x0, #0x3f21, lsl #16
   81a24:	b9400fe1 	ldr	w1, [sp, #12]
   81a28:	b9000001 	str	w1, [x0]
   81a2c:	d503201f 	nop
   81a30:	910043ff 	add	sp, sp, #0x10
   81a34:	d65f03c0 	ret

0000000000081a38 <uart_getc>:
   81a38:	d10043ff 	sub	sp, sp, #0x10
   81a3c:	d503201f 	nop
   81a40:	d28a0a80 	mov	x0, #0x5054                	// #20564
   81a44:	f2a7e420 	movk	x0, #0x3f21, lsl #16
   81a48:	b9400000 	ldr	w0, [x0]
   81a4c:	12000000 	and	w0, w0, #0x1
   81a50:	7100001f 	cmp	w0, #0x0
   81a54:	54ffff40 	b.eq	81a3c <uart_getc+0x4>  // b.none
   81a58:	d28a0800 	mov	x0, #0x5040                	// #20544
   81a5c:	f2a7e420 	movk	x0, #0x3f21, lsl #16
   81a60:	b9400000 	ldr	w0, [x0]
   81a64:	39003fe0 	strb	w0, [sp, #15]
   81a68:	39403fe0 	ldrb	w0, [sp, #15]
   81a6c:	910043ff 	add	sp, sp, #0x10
   81a70:	d65f03c0 	ret

0000000000081a74 <uart_puts>:
   81a74:	a9be7bfd 	stp	x29, x30, [sp, #-32]!
   81a78:	910003fd 	mov	x29, sp
   81a7c:	f9000fe0 	str	x0, [sp, #24]
   81a80:	14000028 	b	81b20 <uart_puts+0xac>
   81a84:	f9400fe0 	ldr	x0, [sp, #24]
   81a88:	39400000 	ldrb	w0, [x0]
   81a8c:	7100281f 	cmp	w0, #0xa
   81a90:	54000221 	b.ne	81ad4 <uart_puts+0x60>  // b.any
   81a94:	f0000000 	adrp	x0, 84000 <list_del+0x40>
   81a98:	f9471000 	ldr	x0, [x0, #3616]
   81a9c:	b9400002 	ldr	w2, [x0]
   81aa0:	f0000000 	adrp	x0, 84000 <list_del+0x40>
   81aa4:	f9471801 	ldr	x1, [x0, #3632]
   81aa8:	2a0203e0 	mov	w0, w2
   81aac:	528001a2 	mov	w2, #0xd                   	// #13
   81ab0:	38206822 	strb	w2, [x1, x0]
   81ab4:	f0000000 	adrp	x0, 84000 <list_del+0x40>
   81ab8:	f9471000 	ldr	x0, [x0, #3616]
   81abc:	b9400000 	ldr	w0, [x0]
   81ac0:	11000400 	add	w0, w0, #0x1
   81ac4:	12001c01 	and	w1, w0, #0xff
   81ac8:	f0000000 	adrp	x0, 84000 <list_del+0x40>
   81acc:	f9471000 	ldr	x0, [x0, #3616]
   81ad0:	b9000001 	str	w1, [x0]
   81ad4:	f9400fe0 	ldr	x0, [sp, #24]
   81ad8:	91000401 	add	x1, x0, #0x1
   81adc:	f9000fe1 	str	x1, [sp, #24]
   81ae0:	f0000001 	adrp	x1, 84000 <list_del+0x40>
   81ae4:	f9471021 	ldr	x1, [x1, #3616]
   81ae8:	b9400023 	ldr	w3, [x1]
   81aec:	39400002 	ldrb	w2, [x0]
   81af0:	f0000000 	adrp	x0, 84000 <list_del+0x40>
   81af4:	f9471801 	ldr	x1, [x0, #3632]
   81af8:	2a0303e0 	mov	w0, w3
   81afc:	38206822 	strb	w2, [x1, x0]
   81b00:	f0000000 	adrp	x0, 84000 <list_del+0x40>
   81b04:	f9471000 	ldr	x0, [x0, #3616]
   81b08:	b9400000 	ldr	w0, [x0]
   81b0c:	11000400 	add	w0, w0, #0x1
   81b10:	12001c01 	and	w1, w0, #0xff
   81b14:	f0000000 	adrp	x0, 84000 <list_del+0x40>
   81b18:	f9471000 	ldr	x0, [x0, #3616]
   81b1c:	b9000001 	str	w1, [x0]
   81b20:	f9400fe0 	ldr	x0, [sp, #24]
   81b24:	39400000 	ldrb	w0, [x0]
   81b28:	7100001f 	cmp	w0, #0x0
   81b2c:	54fffac1 	b.ne	81a84 <uart_puts+0x10>  // b.any
   81b30:	940000fd 	bl	81f24 <enable_transmit_irq>
   81b34:	d503201f 	nop
   81b38:	f0000000 	adrp	x0, 84000 <list_del+0x40>
   81b3c:	f9471000 	ldr	x0, [x0, #3616]
   81b40:	b9400001 	ldr	w1, [x0]
   81b44:	f0000000 	adrp	x0, 84000 <list_del+0x40>
   81b48:	f9472000 	ldr	x0, [x0, #3648]
   81b4c:	b9400000 	ldr	w0, [x0]
   81b50:	6b00003f 	cmp	w1, w0
   81b54:	54ffff01 	b.ne	81b34 <uart_puts+0xc0>  // b.any
   81b58:	f0000000 	adrp	x0, 84000 <list_del+0x40>
   81b5c:	f9471000 	ldr	x0, [x0, #3616]
   81b60:	b900001f 	str	wzr, [x0]
   81b64:	f0000000 	adrp	x0, 84000 <list_del+0x40>
   81b68:	f9472000 	ldr	x0, [x0, #3648]
   81b6c:	b900001f 	str	wzr, [x0]
   81b70:	d503201f 	nop
   81b74:	a8c27bfd 	ldp	x29, x30, [sp], #32
   81b78:	d65f03c0 	ret

0000000000081b7c <sync_uart_puts>:
   81b7c:	a9be7bfd 	stp	x29, x30, [sp, #-32]!
   81b80:	910003fd 	mov	x29, sp
   81b84:	f9000fe0 	str	x0, [sp, #24]
   81b88:	1400000c 	b	81bb8 <sync_uart_puts+0x3c>
   81b8c:	f9400fe0 	ldr	x0, [sp, #24]
   81b90:	39400000 	ldrb	w0, [x0]
   81b94:	7100281f 	cmp	w0, #0xa
   81b98:	54000061 	b.ne	81ba4 <sync_uart_puts+0x28>  // b.any
   81b9c:	528001a0 	mov	w0, #0xd                   	// #13
   81ba0:	97ffff96 	bl	819f8 <uart_send>
   81ba4:	f9400fe0 	ldr	x0, [sp, #24]
   81ba8:	91000401 	add	x1, x0, #0x1
   81bac:	f9000fe1 	str	x1, [sp, #24]
   81bb0:	39400000 	ldrb	w0, [x0]
   81bb4:	97ffff91 	bl	819f8 <uart_send>
   81bb8:	f9400fe0 	ldr	x0, [sp, #24]
   81bbc:	39400000 	ldrb	w0, [x0]
   81bc0:	7100001f 	cmp	w0, #0x0
   81bc4:	54fffe41 	b.ne	81b8c <sync_uart_puts+0x10>  // b.any
   81bc8:	d503201f 	nop
   81bcc:	a8c27bfd 	ldp	x29, x30, [sp], #32
   81bd0:	d65f03c0 	ret

0000000000081bd4 <uart_hex>:
   81bd4:	a9bd7bfd 	stp	x29, x30, [sp, #-48]!
   81bd8:	910003fd 	mov	x29, sp
   81bdc:	b9001fe0 	str	w0, [sp, #28]
   81be0:	52800380 	mov	w0, #0x1c                  	// #28
   81be4:	b9002fe0 	str	w0, [sp, #44]
   81be8:	14000014 	b	81c38 <uart_hex+0x64>
   81bec:	b9402fe0 	ldr	w0, [sp, #44]
   81bf0:	b9401fe1 	ldr	w1, [sp, #28]
   81bf4:	1ac02420 	lsr	w0, w1, w0
   81bf8:	12000c00 	and	w0, w0, #0xf
   81bfc:	b9002be0 	str	w0, [sp, #40]
   81c00:	b9402be0 	ldr	w0, [sp, #40]
   81c04:	7100241f 	cmp	w0, #0x9
   81c08:	54000069 	b.ls	81c14 <uart_hex+0x40>  // b.plast
   81c0c:	528006e0 	mov	w0, #0x37                  	// #55
   81c10:	14000002 	b	81c18 <uart_hex+0x44>
   81c14:	52800600 	mov	w0, #0x30                  	// #48
   81c18:	b9402be1 	ldr	w1, [sp, #40]
   81c1c:	0b000020 	add	w0, w1, w0
   81c20:	b9002be0 	str	w0, [sp, #40]
   81c24:	b9402be0 	ldr	w0, [sp, #40]
   81c28:	97ffff74 	bl	819f8 <uart_send>
   81c2c:	b9402fe0 	ldr	w0, [sp, #44]
   81c30:	51001000 	sub	w0, w0, #0x4
   81c34:	b9002fe0 	str	w0, [sp, #44]
   81c38:	b9402fe0 	ldr	w0, [sp, #44]
   81c3c:	7100001f 	cmp	w0, #0x0
   81c40:	54fffd6a 	b.ge	81bec <uart_hex+0x18>  // b.tcont
   81c44:	d503201f 	nop
   81c48:	a8c37bfd 	ldp	x29, x30, [sp], #48
   81c4c:	d65f03c0 	ret

0000000000081c50 <uart_dec>:
   81c50:	a9bd7bfd 	stp	x29, x30, [sp, #-48]!
   81c54:	910003fd 	mov	x29, sp
   81c58:	b9001fe0 	str	w0, [sp, #28]
   81c5c:	52994000 	mov	w0, #0xca00                	// #51712
   81c60:	72a77340 	movk	w0, #0x3b9a, lsl #16
   81c64:	b9002fe0 	str	w0, [sp, #44]
   81c68:	52800020 	mov	w0, #0x1                   	// #1
   81c6c:	b9002be0 	str	w0, [sp, #40]
   81c70:	b9401fe0 	ldr	w0, [sp, #28]
   81c74:	7100001f 	cmp	w0, #0x0
   81c78:	54000081 	b.ne	81c88 <uart_dec+0x38>  // b.any
   81c7c:	52800600 	mov	w0, #0x30                  	// #48
   81c80:	97ffff5e 	bl	819f8 <uart_send>
   81c84:	14000027 	b	81d20 <uart_dec+0xd0>
   81c88:	b9401fe0 	ldr	w0, [sp, #28]
   81c8c:	7100001f 	cmp	w0, #0x0
   81c90:	540000ca 	b.ge	81ca8 <uart_dec+0x58>  // b.tcont
   81c94:	b9401fe0 	ldr	w0, [sp, #28]
   81c98:	4b0003e0 	neg	w0, w0
   81c9c:	b9001fe0 	str	w0, [sp, #28]
   81ca0:	528005a0 	mov	w0, #0x2d                  	// #45
   81ca4:	97ffff55 	bl	819f8 <uart_send>
   81ca8:	b9401fe1 	ldr	w1, [sp, #28]
   81cac:	b9402fe0 	ldr	w0, [sp, #44]
   81cb0:	1ac00820 	udiv	w0, w1, w0
   81cb4:	b90027e0 	str	w0, [sp, #36]
   81cb8:	b94027e0 	ldr	w0, [sp, #36]
   81cbc:	7100001f 	cmp	w0, #0x0
   81cc0:	54000100 	b.eq	81ce0 <uart_dec+0x90>  // b.none
   81cc4:	b9002bff 	str	wzr, [sp, #40]
   81cc8:	b9401fe1 	ldr	w1, [sp, #28]
   81ccc:	b94027e2 	ldr	w2, [sp, #36]
   81cd0:	b9402fe0 	ldr	w0, [sp, #44]
   81cd4:	1b007c40 	mul	w0, w2, w0
   81cd8:	4b000020 	sub	w0, w1, w0
   81cdc:	b9001fe0 	str	w0, [sp, #28]
   81ce0:	b9402fe1 	ldr	w1, [sp, #44]
   81ce4:	529999a0 	mov	w0, #0xcccd                	// #52429
   81ce8:	72b99980 	movk	w0, #0xcccc, lsl #16
   81cec:	9ba07c20 	umull	x0, w1, w0
   81cf0:	d360fc00 	lsr	x0, x0, #32
   81cf4:	53037c00 	lsr	w0, w0, #3
   81cf8:	b9002fe0 	str	w0, [sp, #44]
   81cfc:	b9402be0 	ldr	w0, [sp, #40]
   81d00:	7100001f 	cmp	w0, #0x0
   81d04:	54000081 	b.ne	81d14 <uart_dec+0xc4>  // b.any
   81d08:	b94027e0 	ldr	w0, [sp, #36]
   81d0c:	1100c000 	add	w0, w0, #0x30
   81d10:	97ffff3a 	bl	819f8 <uart_send>
   81d14:	b9402fe0 	ldr	w0, [sp, #44]
   81d18:	7100001f 	cmp	w0, #0x0
   81d1c:	54fffc61 	b.ne	81ca8 <uart_dec+0x58>  // b.any
   81d20:	a8c37bfd 	ldp	x29, x30, [sp], #48
   81d24:	d65f03c0 	ret

0000000000081d28 <uart_sdec>:
   81d28:	a9bd7bfd 	stp	x29, x30, [sp, #-48]!
   81d2c:	910003fd 	mov	x29, sp
   81d30:	f90017e0 	str	x0, [sp, #40]
   81d34:	b90027e1 	str	w1, [sp, #36]
   81d38:	f9000fe2 	str	x2, [sp, #24]
   81d3c:	f94017e0 	ldr	x0, [sp, #40]
   81d40:	97ffff4d 	bl	81a74 <uart_puts>
   81d44:	b94027e0 	ldr	w0, [sp, #36]
   81d48:	97ffffc2 	bl	81c50 <uart_dec>
   81d4c:	f9400fe0 	ldr	x0, [sp, #24]
   81d50:	97ffff49 	bl	81a74 <uart_puts>
   81d54:	d503201f 	nop
   81d58:	a8c37bfd 	ldp	x29, x30, [sp], #48
   81d5c:	d65f03c0 	ret

0000000000081d60 <uart_shex>:
   81d60:	a9bd7bfd 	stp	x29, x30, [sp, #-48]!
   81d64:	910003fd 	mov	x29, sp
   81d68:	f90017e0 	str	x0, [sp, #40]
   81d6c:	b90027e1 	str	w1, [sp, #36]
   81d70:	f9000fe2 	str	x2, [sp, #24]
   81d74:	f94017e0 	ldr	x0, [sp, #40]
   81d78:	97ffff3f 	bl	81a74 <uart_puts>
   81d7c:	b94027e0 	ldr	w0, [sp, #36]
   81d80:	97ffff95 	bl	81bd4 <uart_hex>
   81d84:	f9400fe0 	ldr	x0, [sp, #24]
   81d88:	97ffff3b 	bl	81a74 <uart_puts>
   81d8c:	d503201f 	nop
   81d90:	a8c37bfd 	ldp	x29, x30, [sp], #48
   81d94:	d65f03c0 	ret

0000000000081d98 <uart_irq_handler>:
   81d98:	a9be7bfd 	stp	x29, x30, [sp, #-32]!
   81d9c:	910003fd 	mov	x29, sp
   81da0:	d28a0900 	mov	x0, #0x5048                	// #20552
   81da4:	f2a7e420 	movk	x0, #0x3f21, lsl #16
   81da8:	b9400000 	ldr	w0, [x0]
   81dac:	b9001fe0 	str	w0, [sp, #28]
   81db0:	b9401fe0 	ldr	w0, [sp, #28]
   81db4:	121f0400 	and	w0, w0, #0x6
   81db8:	b9001fe0 	str	w0, [sp, #28]
   81dbc:	b9401fe0 	ldr	w0, [sp, #28]
   81dc0:	7100101f 	cmp	w0, #0x4
   81dc4:	54000061 	b.ne	81dd0 <uart_irq_handler+0x38>  // b.any
   81dc8:	9400000b 	bl	81df4 <receive_handler>
   81dcc:	14000007 	b	81de8 <uart_irq_handler+0x50>
   81dd0:	b9401fe0 	ldr	w0, [sp, #28]
   81dd4:	7100081f 	cmp	w0, #0x2
   81dd8:	54000061 	b.ne	81de4 <uart_irq_handler+0x4c>  // b.any
   81ddc:	94000022 	bl	81e64 <transmit_handler>
   81de0:	14000002 	b	81de8 <uart_irq_handler+0x50>
   81de4:	97fffd14 	bl	81234 <exit>
   81de8:	d503201f 	nop
   81dec:	a8c27bfd 	ldp	x29, x30, [sp], #32
   81df0:	d65f03c0 	ret

0000000000081df4 <receive_handler>:
   81df4:	a9be7bfd 	stp	x29, x30, [sp, #-32]!
   81df8:	910003fd 	mov	x29, sp
   81dfc:	d28a0800 	mov	x0, #0x5040                	// #20544
   81e00:	f2a7e420 	movk	x0, #0x3f21, lsl #16
   81e04:	b9400000 	ldr	w0, [x0]
   81e08:	39007fe0 	strb	w0, [sp, #31]
   81e0c:	f0000000 	adrp	x0, 84000 <list_del+0x40>
   81e10:	f9472c00 	ldr	x0, [x0, #3672]
   81e14:	b9400000 	ldr	w0, [x0]
   81e18:	11000402 	add	w2, w0, #0x1
   81e1c:	f0000001 	adrp	x1, 84000 <list_del+0x40>
   81e20:	f9472c21 	ldr	x1, [x1, #3672]
   81e24:	b9000022 	str	w2, [x1]
   81e28:	f0000001 	adrp	x1, 84000 <list_del+0x40>
   81e2c:	f9473821 	ldr	x1, [x1, #3696]
   81e30:	2a0003e0 	mov	w0, w0
   81e34:	39407fe2 	ldrb	w2, [sp, #31]
   81e38:	38206822 	strb	w2, [x1, x0]
   81e3c:	39407fe0 	ldrb	w0, [sp, #31]
   81e40:	7100341f 	cmp	w0, #0xd
   81e44:	54000061 	b.ne	81e50 <receive_handler+0x5c>  // b.any
   81e48:	52800140 	mov	w0, #0xa                   	// #10
   81e4c:	97fffeeb 	bl	819f8 <uart_send>
   81e50:	39407fe0 	ldrb	w0, [sp, #31]
   81e54:	97fffee9 	bl	819f8 <uart_send>
   81e58:	d503201f 	nop
   81e5c:	a8c27bfd 	ldp	x29, x30, [sp], #32
   81e60:	d65f03c0 	ret

0000000000081e64 <transmit_handler>:
   81e64:	a9bf7bfd 	stp	x29, x30, [sp, #-16]!
   81e68:	910003fd 	mov	x29, sp
   81e6c:	14000022 	b	81ef4 <transmit_handler+0x90>
   81e70:	d503201f 	nop
   81e74:	d28a0a80 	mov	x0, #0x5054                	// #20564
   81e78:	f2a7e420 	movk	x0, #0x3f21, lsl #16
   81e7c:	b9400000 	ldr	w0, [x0]
   81e80:	121b0000 	and	w0, w0, #0x20
   81e84:	7100001f 	cmp	w0, #0x0
   81e88:	54ffff40 	b.eq	81e70 <transmit_handler+0xc>  // b.none
   81e8c:	f0000000 	adrp	x0, 84000 <list_del+0x40>
   81e90:	f9472000 	ldr	x0, [x0, #3648]
   81e94:	b9400002 	ldr	w2, [x0]
   81e98:	f0000000 	adrp	x0, 84000 <list_del+0x40>
   81e9c:	f9471801 	ldr	x1, [x0, #3632]
   81ea0:	2a0203e0 	mov	w0, w2
   81ea4:	38606821 	ldrb	w1, [x1, x0]
   81ea8:	d28a0800 	mov	x0, #0x5040                	// #20544
   81eac:	f2a7e420 	movk	x0, #0x3f21, lsl #16
   81eb0:	b9000001 	str	w1, [x0]
   81eb4:	f0000000 	adrp	x0, 84000 <list_del+0x40>
   81eb8:	f9472000 	ldr	x0, [x0, #3648]
   81ebc:	b9400000 	ldr	w0, [x0]
   81ec0:	7103fc1f 	cmp	w0, #0xff
   81ec4:	540000a1 	b.ne	81ed8 <transmit_handler+0x74>  // b.any
   81ec8:	f0000000 	adrp	x0, 84000 <list_del+0x40>
   81ecc:	f9472000 	ldr	x0, [x0, #3648]
   81ed0:	b900001f 	str	wzr, [x0]
   81ed4:	14000008 	b	81ef4 <transmit_handler+0x90>
   81ed8:	f0000000 	adrp	x0, 84000 <list_del+0x40>
   81edc:	f9472000 	ldr	x0, [x0, #3648]
   81ee0:	b9400000 	ldr	w0, [x0]
   81ee4:	11000401 	add	w1, w0, #0x1
   81ee8:	f0000000 	adrp	x0, 84000 <list_del+0x40>
   81eec:	f9472000 	ldr	x0, [x0, #3648]
   81ef0:	b9000001 	str	w1, [x0]
   81ef4:	f0000000 	adrp	x0, 84000 <list_del+0x40>
   81ef8:	f9472000 	ldr	x0, [x0, #3648]
   81efc:	b9400001 	ldr	w1, [x0]
   81f00:	f0000000 	adrp	x0, 84000 <list_del+0x40>
   81f04:	f9471000 	ldr	x0, [x0, #3616]
   81f08:	b9400000 	ldr	w0, [x0]
   81f0c:	6b00003f 	cmp	w1, w0
   81f10:	54fffb01 	b.ne	81e70 <transmit_handler+0xc>  // b.any
   81f14:	94000013 	bl	81f60 <disable_transmit_irq>
   81f18:	d503201f 	nop
   81f1c:	a8c17bfd 	ldp	x29, x30, [sp], #16
   81f20:	d65f03c0 	ret

0000000000081f24 <enable_transmit_irq>:
   81f24:	d10043ff 	sub	sp, sp, #0x10
   81f28:	d28a0880 	mov	x0, #0x5044                	// #20548
   81f2c:	f2a7e420 	movk	x0, #0x3f21, lsl #16
   81f30:	b9400000 	ldr	w0, [x0]
   81f34:	b9000fe0 	str	w0, [sp, #12]
   81f38:	b9400fe0 	ldr	w0, [sp, #12]
   81f3c:	321f0000 	orr	w0, w0, #0x2
   81f40:	b9000fe0 	str	w0, [sp, #12]
   81f44:	d28a0880 	mov	x0, #0x5044                	// #20548
   81f48:	f2a7e420 	movk	x0, #0x3f21, lsl #16
   81f4c:	b9400fe1 	ldr	w1, [sp, #12]
   81f50:	b9000001 	str	w1, [x0]
   81f54:	d503201f 	nop
   81f58:	910043ff 	add	sp, sp, #0x10
   81f5c:	d65f03c0 	ret

0000000000081f60 <disable_transmit_irq>:
   81f60:	d10043ff 	sub	sp, sp, #0x10
   81f64:	d28a0880 	mov	x0, #0x5044                	// #20548
   81f68:	f2a7e420 	movk	x0, #0x3f21, lsl #16
   81f6c:	b9400000 	ldr	w0, [x0]
   81f70:	b9000fe0 	str	w0, [sp, #12]
   81f74:	b9400fe0 	ldr	w0, [sp, #12]
   81f78:	121e7800 	and	w0, w0, #0xfffffffd
   81f7c:	b9000fe0 	str	w0, [sp, #12]
   81f80:	d28a0880 	mov	x0, #0x5044                	// #20548
   81f84:	f2a7e420 	movk	x0, #0x3f21, lsl #16
   81f88:	b9400fe1 	ldr	w1, [sp, #12]
   81f8c:	b9000001 	str	w1, [x0]
   81f90:	d503201f 	nop
   81f94:	910043ff 	add	sp, sp, #0x10
   81f98:	d65f03c0 	ret

0000000000081f9c <disable_recieve_irq>:
   81f9c:	d10043ff 	sub	sp, sp, #0x10
   81fa0:	d28a0880 	mov	x0, #0x5044                	// #20548
   81fa4:	f2a7e420 	movk	x0, #0x3f21, lsl #16
   81fa8:	b9400000 	ldr	w0, [x0]
   81fac:	b9000fe0 	str	w0, [sp, #12]
   81fb0:	b9400fe0 	ldr	w0, [sp, #12]
   81fb4:	121f7800 	and	w0, w0, #0xfffffffe
   81fb8:	b9000fe0 	str	w0, [sp, #12]
   81fbc:	d28a0880 	mov	x0, #0x5044                	// #20548
   81fc0:	f2a7e420 	movk	x0, #0x3f21, lsl #16
   81fc4:	b9400fe1 	ldr	w1, [sp, #12]
   81fc8:	b9000001 	str	w1, [x0]
   81fcc:	d503201f 	nop
   81fd0:	910043ff 	add	sp, sp, #0x10
   81fd4:	d65f03c0 	ret

0000000000081fd8 <memcpy>:
   81fd8:	d10103ff 	sub	sp, sp, #0x40
   81fdc:	f9000fe0 	str	x0, [sp, #24]
   81fe0:	f9000be1 	str	x1, [sp, #16]
   81fe4:	f90007e2 	str	x2, [sp, #8]
   81fe8:	f9400fe0 	ldr	x0, [sp, #24]
   81fec:	f9001fe0 	str	x0, [sp, #56]
   81ff0:	f9400be0 	ldr	x0, [sp, #16]
   81ff4:	f9001be0 	str	x0, [sp, #48]
   81ff8:	b9002fff 	str	wzr, [sp, #44]
   81ffc:	1400000c 	b	8202c <memcpy+0x54>
   82000:	f9401be1 	ldr	x1, [sp, #48]
   82004:	91000420 	add	x0, x1, #0x1
   82008:	f9001be0 	str	x0, [sp, #48]
   8200c:	f9401fe0 	ldr	x0, [sp, #56]
   82010:	91000402 	add	x2, x0, #0x1
   82014:	f9001fe2 	str	x2, [sp, #56]
   82018:	39400021 	ldrb	w1, [x1]
   8201c:	39000001 	strb	w1, [x0]
   82020:	b9402fe0 	ldr	w0, [sp, #44]
   82024:	11000400 	add	w0, w0, #0x1
   82028:	b9002fe0 	str	w0, [sp, #44]
   8202c:	b9802fe0 	ldrsw	x0, [sp, #44]
   82030:	f94007e1 	ldr	x1, [sp, #8]
   82034:	eb00003f 	cmp	x1, x0
   82038:	54fffe48 	b.hi	82000 <memcpy+0x28>  // b.pmore
   8203c:	f9400fe0 	ldr	x0, [sp, #24]
   82040:	910103ff 	add	sp, sp, #0x40
   82044:	d65f03c0 	ret

0000000000082048 <strncmp>:
   82048:	d10103ff 	sub	sp, sp, #0x40
   8204c:	f9000fe0 	str	x0, [sp, #24]
   82050:	f9000be1 	str	x1, [sp, #16]
   82054:	f90007e2 	str	x2, [sp, #8]
   82058:	f9400fe0 	ldr	x0, [sp, #24]
   8205c:	f9001be0 	str	x0, [sp, #48]
   82060:	f9400be0 	ldr	x0, [sp, #16]
   82064:	f90017e0 	str	x0, [sp, #40]
   82068:	f9401be0 	ldr	x0, [sp, #48]
   8206c:	d1000400 	sub	x0, x0, #0x1
   82070:	f9001be0 	str	x0, [sp, #48]
   82074:	f94017e0 	ldr	x0, [sp, #40]
   82078:	d1000400 	sub	x0, x0, #0x1
   8207c:	f90017e0 	str	x0, [sp, #40]
   82080:	f9401be0 	ldr	x0, [sp, #48]
   82084:	91000400 	add	x0, x0, #0x1
   82088:	f9001be0 	str	x0, [sp, #48]
   8208c:	f94017e0 	ldr	x0, [sp, #40]
   82090:	91000400 	add	x0, x0, #0x1
   82094:	f90017e0 	str	x0, [sp, #40]
   82098:	f9401be0 	ldr	x0, [sp, #48]
   8209c:	39400001 	ldrb	w1, [x0]
   820a0:	f94017e0 	ldr	x0, [sp, #40]
   820a4:	39400000 	ldrb	w0, [x0]
   820a8:	6b00003f 	cmp	w1, w0
   820ac:	54000121 	b.ne	820d0 <strncmp+0x88>  // b.any
   820b0:	b9003fff 	str	wzr, [sp, #60]
   820b4:	f94007e0 	ldr	x0, [sp, #8]
   820b8:	d1000400 	sub	x0, x0, #0x1
   820bc:	f90007e0 	str	x0, [sp, #8]
   820c0:	f94007e0 	ldr	x0, [sp, #8]
   820c4:	f100001f 	cmp	x0, #0x0
   820c8:	540002c0 	b.eq	82120 <strncmp+0xd8>  // b.none
   820cc:	1400000d 	b	82100 <strncmp+0xb8>
   820d0:	f9401be0 	ldr	x0, [sp, #48]
   820d4:	39400001 	ldrb	w1, [x0]
   820d8:	f94017e0 	ldr	x0, [sp, #40]
   820dc:	39400000 	ldrb	w0, [x0]
   820e0:	6b00003f 	cmp	w1, w0
   820e4:	54000082 	b.cs	820f4 <strncmp+0xac>  // b.hs, b.nlast
   820e8:	12800000 	mov	w0, #0xffffffff            	// #-1
   820ec:	b9003fe0 	str	w0, [sp, #60]
   820f0:	1400000c 	b	82120 <strncmp+0xd8>
   820f4:	52800020 	mov	w0, #0x1                   	// #1
   820f8:	b9003fe0 	str	w0, [sp, #60]
   820fc:	14000009 	b	82120 <strncmp+0xd8>
   82100:	f9401be0 	ldr	x0, [sp, #48]
   82104:	39400000 	ldrb	w0, [x0]
   82108:	7100001f 	cmp	w0, #0x0
   8210c:	540000a0 	b.eq	82120 <strncmp+0xd8>  // b.none
   82110:	f94017e0 	ldr	x0, [sp, #40]
   82114:	39400000 	ldrb	w0, [x0]
   82118:	7100001f 	cmp	w0, #0x0
   8211c:	54fffb21 	b.ne	82080 <strncmp+0x38>  // b.any
   82120:	b9403fe0 	ldr	w0, [sp, #60]
   82124:	910103ff 	add	sp, sp, #0x40
   82128:	d65f03c0 	ret

000000000008212c <strcmp>:
   8212c:	d10083ff 	sub	sp, sp, #0x20
   82130:	f90007e0 	str	x0, [sp, #8]
   82134:	f90003e1 	str	x1, [sp]
   82138:	f94007e0 	ldr	x0, [sp, #8]
   8213c:	d1000400 	sub	x0, x0, #0x1
   82140:	f90007e0 	str	x0, [sp, #8]
   82144:	f94003e0 	ldr	x0, [sp]
   82148:	d1000400 	sub	x0, x0, #0x1
   8214c:	f90003e0 	str	x0, [sp]
   82150:	f94007e0 	ldr	x0, [sp, #8]
   82154:	91000400 	add	x0, x0, #0x1
   82158:	f90007e0 	str	x0, [sp, #8]
   8215c:	f94003e0 	ldr	x0, [sp]
   82160:	91000400 	add	x0, x0, #0x1
   82164:	f90003e0 	str	x0, [sp]
   82168:	f94007e0 	ldr	x0, [sp, #8]
   8216c:	39400001 	ldrb	w1, [x0]
   82170:	f94003e0 	ldr	x0, [sp]
   82174:	39400000 	ldrb	w0, [x0]
   82178:	6b00003f 	cmp	w1, w0
   8217c:	540000e1 	b.ne	82198 <strcmp+0x6c>  // b.any
   82180:	b9001fff 	str	wzr, [sp, #28]
   82184:	f94007e0 	ldr	x0, [sp, #8]
   82188:	39400000 	ldrb	w0, [x0]
   8218c:	7100001f 	cmp	w0, #0x0
   82190:	54000240 	b.eq	821d8 <strcmp+0xac>  // b.none
   82194:	1400000d 	b	821c8 <strcmp+0x9c>
   82198:	f94007e0 	ldr	x0, [sp, #8]
   8219c:	39400001 	ldrb	w1, [x0]
   821a0:	f94003e0 	ldr	x0, [sp]
   821a4:	39400000 	ldrb	w0, [x0]
   821a8:	6b00003f 	cmp	w1, w0
   821ac:	54000082 	b.cs	821bc <strcmp+0x90>  // b.hs, b.nlast
   821b0:	12800000 	mov	w0, #0xffffffff            	// #-1
   821b4:	b9001fe0 	str	w0, [sp, #28]
   821b8:	14000008 	b	821d8 <strcmp+0xac>
   821bc:	52800020 	mov	w0, #0x1                   	// #1
   821c0:	b9001fe0 	str	w0, [sp, #28]
   821c4:	14000005 	b	821d8 <strcmp+0xac>
   821c8:	f94003e0 	ldr	x0, [sp]
   821cc:	39400000 	ldrb	w0, [x0]
   821d0:	7100001f 	cmp	w0, #0x0
   821d4:	54fffbe1 	b.ne	82150 <strcmp+0x24>  // b.any
   821d8:	b9401fe0 	ldr	w0, [sp, #28]
   821dc:	910083ff 	add	sp, sp, #0x20
   821e0:	d65f03c0 	ret

00000000000821e4 <strcat>:
   821e4:	d10083ff 	sub	sp, sp, #0x20
   821e8:	f90007e0 	str	x0, [sp, #8]
   821ec:	f90003e1 	str	x1, [sp]
   821f0:	f94007e0 	ldr	x0, [sp, #8]
   821f4:	f9000fe0 	str	x0, [sp, #24]
   821f8:	14000004 	b	82208 <strcat+0x24>
   821fc:	f9400fe0 	ldr	x0, [sp, #24]
   82200:	91000400 	add	x0, x0, #0x1
   82204:	f9000fe0 	str	x0, [sp, #24]
   82208:	f9400fe0 	ldr	x0, [sp, #24]
   8220c:	39400000 	ldrb	w0, [x0]
   82210:	7100001f 	cmp	w0, #0x0
   82214:	54ffff41 	b.ne	821fc <strcat+0x18>  // b.any
   82218:	14000009 	b	8223c <strcat+0x58>
   8221c:	f94003e1 	ldr	x1, [sp]
   82220:	91000420 	add	x0, x1, #0x1
   82224:	f90003e0 	str	x0, [sp]
   82228:	f9400fe0 	ldr	x0, [sp, #24]
   8222c:	91000402 	add	x2, x0, #0x1
   82230:	f9000fe2 	str	x2, [sp, #24]
   82234:	39400021 	ldrb	w1, [x1]
   82238:	39000001 	strb	w1, [x0]
   8223c:	f94003e0 	ldr	x0, [sp]
   82240:	39400000 	ldrb	w0, [x0]
   82244:	7100001f 	cmp	w0, #0x0
   82248:	54fffea1 	b.ne	8221c <strcat+0x38>  // b.any
   8224c:	f9400fe0 	ldr	x0, [sp, #24]
   82250:	3900001f 	strb	wzr, [x0]
   82254:	f94007e0 	ldr	x0, [sp, #8]
   82258:	910083ff 	add	sp, sp, #0x20
   8225c:	d65f03c0 	ret

0000000000082260 <strtok>:
   82260:	d10083ff 	sub	sp, sp, #0x20
   82264:	f90007e0 	str	x0, [sp, #8]
   82268:	39001fe1 	strb	w1, [sp, #7]
   8226c:	b90017ff 	str	wzr, [sp, #20]
   82270:	f94007e0 	ldr	x0, [sp, #8]
   82274:	f100001f 	cmp	x0, #0x0
   82278:	54000100 	b.eq	82298 <strtok+0x38>  // b.none
   8227c:	f94007e0 	ldr	x0, [sp, #8]
   82280:	f9000fe0 	str	x0, [sp, #24]
   82284:	d0000000 	adrp	x0, 84000 <list_del+0x40>
   82288:	f9470800 	ldr	x0, [x0, #3600]
   8228c:	f94007e1 	ldr	x1, [sp, #8]
   82290:	f9000001 	str	x1, [x0]
   82294:	1400002e 	b	8234c <strtok+0xec>
   82298:	d0000000 	adrp	x0, 84000 <list_del+0x40>
   8229c:	f9470800 	ldr	x0, [x0, #3600]
   822a0:	f9400000 	ldr	x0, [x0]
   822a4:	f9000fe0 	str	x0, [sp, #24]
   822a8:	14000029 	b	8234c <strtok+0xec>
   822ac:	d0000000 	adrp	x0, 84000 <list_del+0x40>
   822b0:	f9470800 	ldr	x0, [x0, #3600]
   822b4:	f9400000 	ldr	x0, [x0]
   822b8:	39400000 	ldrb	w0, [x0]
   822bc:	39401fe1 	ldrb	w1, [sp, #7]
   822c0:	6b00003f 	cmp	w1, w0
   822c4:	54000321 	b.ne	82328 <strtok+0xc8>  // b.any
   822c8:	b94017e0 	ldr	w0, [sp, #20]
   822cc:	7100001f 	cmp	w0, #0x0
   822d0:	54000160 	b.eq	822fc <strtok+0x9c>  // b.none
   822d4:	d0000000 	adrp	x0, 84000 <list_del+0x40>
   822d8:	f9470800 	ldr	x0, [x0, #3600]
   822dc:	f9400000 	ldr	x0, [x0]
   822e0:	91000402 	add	x2, x0, #0x1
   822e4:	d0000001 	adrp	x1, 84000 <list_del+0x40>
   822e8:	f9470821 	ldr	x1, [x1, #3600]
   822ec:	f9000022 	str	x2, [x1]
   822f0:	3900001f 	strb	wzr, [x0]
   822f4:	f9400fe0 	ldr	x0, [sp, #24]
   822f8:	14000021 	b	8237c <strtok+0x11c>
   822fc:	f9400fe0 	ldr	x0, [sp, #24]
   82300:	91000400 	add	x0, x0, #0x1
   82304:	f9000fe0 	str	x0, [sp, #24]
   82308:	d0000000 	adrp	x0, 84000 <list_del+0x40>
   8230c:	f9470800 	ldr	x0, [x0, #3600]
   82310:	f9400000 	ldr	x0, [x0]
   82314:	91000401 	add	x1, x0, #0x1
   82318:	d0000000 	adrp	x0, 84000 <list_del+0x40>
   8231c:	f9470800 	ldr	x0, [x0, #3600]
   82320:	f9000001 	str	x1, [x0]
   82324:	1400000a 	b	8234c <strtok+0xec>
   82328:	52800020 	mov	w0, #0x1                   	// #1
   8232c:	b90017e0 	str	w0, [sp, #20]
   82330:	d0000000 	adrp	x0, 84000 <list_del+0x40>
   82334:	f9470800 	ldr	x0, [x0, #3600]
   82338:	f9400000 	ldr	x0, [x0]
   8233c:	91000401 	add	x1, x0, #0x1
   82340:	d0000000 	adrp	x0, 84000 <list_del+0x40>
   82344:	f9470800 	ldr	x0, [x0, #3600]
   82348:	f9000001 	str	x1, [x0]
   8234c:	d0000000 	adrp	x0, 84000 <list_del+0x40>
   82350:	f9470800 	ldr	x0, [x0, #3600]
   82354:	f9400000 	ldr	x0, [x0]
   82358:	39400000 	ldrb	w0, [x0]
   8235c:	7100001f 	cmp	w0, #0x0
   82360:	54fffa61 	b.ne	822ac <strtok+0x4c>  // b.any
   82364:	b94017e0 	ldr	w0, [sp, #20]
   82368:	7100041f 	cmp	w0, #0x1
   8236c:	54000061 	b.ne	82378 <strtok+0x118>  // b.any
   82370:	f9400fe0 	ldr	x0, [sp, #24]
   82374:	14000002 	b	8237c <strtok+0x11c>
   82378:	d2800000 	mov	x0, #0x0                   	// #0
   8237c:	910083ff 	add	sp, sp, #0x20
   82380:	d65f03c0 	ret

0000000000082384 <strlen>:
   82384:	d10083ff 	sub	sp, sp, #0x20
   82388:	f90007e0 	str	x0, [sp, #8]
   8238c:	f94007e0 	ldr	x0, [sp, #8]
   82390:	f9000fe0 	str	x0, [sp, #24]
   82394:	14000004 	b	823a4 <strlen+0x20>
   82398:	f9400fe0 	ldr	x0, [sp, #24]
   8239c:	91000400 	add	x0, x0, #0x1
   823a0:	f9000fe0 	str	x0, [sp, #24]
   823a4:	f9400fe0 	ldr	x0, [sp, #24]
   823a8:	39400000 	ldrb	w0, [x0]
   823ac:	7100001f 	cmp	w0, #0x0
   823b0:	54ffff41 	b.ne	82398 <strlen+0x14>  // b.any
   823b4:	f9400fe1 	ldr	x1, [sp, #24]
   823b8:	f94007e0 	ldr	x0, [sp, #8]
   823bc:	cb000020 	sub	x0, x1, x0
   823c0:	910083ff 	add	sp, sp, #0x20
   823c4:	d65f03c0 	ret

00000000000823c8 <pow>:
   823c8:	d10083ff 	sub	sp, sp, #0x20
   823cc:	b9000fe0 	str	w0, [sp, #12]
   823d0:	b9000be1 	str	w1, [sp, #8]
   823d4:	52800020 	mov	w0, #0x1                   	// #1
   823d8:	b9001fe0 	str	w0, [sp, #28]
   823dc:	b9001bff 	str	wzr, [sp, #24]
   823e0:	14000008 	b	82400 <pow+0x38>
   823e4:	b9401fe1 	ldr	w1, [sp, #28]
   823e8:	b9400fe0 	ldr	w0, [sp, #12]
   823ec:	1b007c20 	mul	w0, w1, w0
   823f0:	b9001fe0 	str	w0, [sp, #28]
   823f4:	b9401be0 	ldr	w0, [sp, #24]
   823f8:	11000400 	add	w0, w0, #0x1
   823fc:	b9001be0 	str	w0, [sp, #24]
   82400:	b9401be1 	ldr	w1, [sp, #24]
   82404:	b9400be0 	ldr	w0, [sp, #8]
   82408:	6b00003f 	cmp	w1, w0
   8240c:	54fffecb 	b.lt	823e4 <pow+0x1c>  // b.tstop
   82410:	b9401fe0 	ldr	w0, [sp, #28]
   82414:	910083ff 	add	sp, sp, #0x20
   82418:	d65f03c0 	ret

000000000008241c <log2_ceiling>:
   8241c:	d10083ff 	sub	sp, sp, #0x20
   82420:	b9000fe0 	str	w0, [sp, #12]
   82424:	12800000 	mov	w0, #0xffffffff            	// #-1
   82428:	b9001fe0 	str	w0, [sp, #28]
   8242c:	b9400fe0 	ldr	w0, [sp, #12]
   82430:	b9001be0 	str	w0, [sp, #24]
   82434:	14000007 	b	82450 <log2_ceiling+0x34>
   82438:	b9401be0 	ldr	w0, [sp, #24]
   8243c:	53017c00 	lsr	w0, w0, #1
   82440:	b9001be0 	str	w0, [sp, #24]
   82444:	b9401fe0 	ldr	w0, [sp, #28]
   82448:	11000400 	add	w0, w0, #0x1
   8244c:	b9001fe0 	str	w0, [sp, #28]
   82450:	b9401be0 	ldr	w0, [sp, #24]
   82454:	7100001f 	cmp	w0, #0x0
   82458:	54ffff01 	b.ne	82438 <log2_ceiling+0x1c>  // b.any
   8245c:	b9401fe0 	ldr	w0, [sp, #28]
   82460:	52800021 	mov	w1, #0x1                   	// #1
   82464:	1ac02020 	lsl	w0, w1, w0
   82468:	2a0003e1 	mov	w1, w0
   8246c:	b9400fe0 	ldr	w0, [sp, #12]
   82470:	6b01001f 	cmp	w0, w1
   82474:	1a9f07e0 	cset	w0, ne  // ne = any
   82478:	12001c00 	and	w0, w0, #0xff
   8247c:	2a0003e1 	mov	w1, w0
   82480:	b9401fe0 	ldr	w0, [sp, #28]
   82484:	0b010000 	add	w0, w0, w1
   82488:	b9001fe0 	str	w0, [sp, #28]
   8248c:	b9401fe0 	ldr	w0, [sp, #28]
   82490:	910083ff 	add	sp, sp, #0x20
   82494:	d65f03c0 	ret

0000000000082498 <log2_floor>:
   82498:	d10083ff 	sub	sp, sp, #0x20
   8249c:	b9000fe0 	str	w0, [sp, #12]
   824a0:	12800000 	mov	w0, #0xffffffff            	// #-1
   824a4:	b9001fe0 	str	w0, [sp, #28]
   824a8:	14000007 	b	824c4 <log2_floor+0x2c>
   824ac:	b9400fe0 	ldr	w0, [sp, #12]
   824b0:	53017c00 	lsr	w0, w0, #1
   824b4:	b9000fe0 	str	w0, [sp, #12]
   824b8:	b9401fe0 	ldr	w0, [sp, #28]
   824bc:	11000400 	add	w0, w0, #0x1
   824c0:	b9001fe0 	str	w0, [sp, #28]
   824c4:	b9400fe0 	ldr	w0, [sp, #12]
   824c8:	7100001f 	cmp	w0, #0x0
   824cc:	54ffff01 	b.ne	824ac <log2_floor+0x14>  // b.any
   824d0:	b9401fe0 	ldr	w0, [sp, #28]
   824d4:	910083ff 	add	sp, sp, #0x20
   824d8:	d65f03c0 	ret

00000000000824dc <cpio_init>:
   824dc:	a9be7bfd 	stp	x29, x30, [sp, #-32]!
   824e0:	910003fd 	mov	x29, sp
   824e4:	f9000fe0 	str	x0, [sp, #24]
   824e8:	f9000be1 	str	x1, [sp, #16]
   824ec:	d0000000 	adrp	x0, 84000 <list_del+0x40>
   824f0:	9115a001 	add	x1, x0, #0x568
   824f4:	f9400fe0 	ldr	x0, [sp, #24]
   824f8:	97ffff0d 	bl	8212c <strcmp>
   824fc:	7100001f 	cmp	w0, #0x0
   82500:	540000a1 	b.ne	82514 <cpio_init+0x38>  // b.any
   82504:	d0000000 	adrp	x0, 84000 <list_del+0x40>
   82508:	f9472400 	ldr	x0, [x0, #3656]
   8250c:	f9400be1 	ldr	x1, [sp, #16]
   82510:	f9000001 	str	x1, [x0]
   82514:	d0000000 	adrp	x0, 84000 <list_del+0x40>
   82518:	91160001 	add	x1, x0, #0x580
   8251c:	f9400fe0 	ldr	x0, [sp, #24]
   82520:	97ffff03 	bl	8212c <strcmp>
   82524:	7100001f 	cmp	w0, #0x0
   82528:	540000a1 	b.ne	8253c <cpio_init+0x60>  // b.any
   8252c:	d0000000 	adrp	x0, 84000 <list_del+0x40>
   82530:	f9474000 	ldr	x0, [x0, #3712]
   82534:	f9400be1 	ldr	x1, [sp, #16]
   82538:	f9000001 	str	x1, [x0]
   8253c:	d503201f 	nop
   82540:	a8c27bfd 	ldp	x29, x30, [sp], #32
   82544:	d65f03c0 	ret

0000000000082548 <cpio_cat>:
   82548:	a9bb7bfd 	stp	x29, x30, [sp, #-80]!
   8254c:	910003fd 	mov	x29, sp
   82550:	f9000bf3 	str	x19, [sp, #16]
   82554:	f90017e0 	str	x0, [sp, #40]
   82558:	d0000000 	adrp	x0, 84000 <list_del+0x40>
   8255c:	f9472400 	ldr	x0, [x0, #3656]
   82560:	f9400000 	ldr	x0, [x0]
   82564:	f90027e0 	str	x0, [sp, #72]
   82568:	9100c3e1 	add	x1, sp, #0x30
   8256c:	910123e0 	add	x0, sp, #0x48
   82570:	94000068 	bl	82710 <cpio_read_file>
   82574:	f9401ff3 	ldr	x19, [sp, #56]
   82578:	f9401be0 	ldr	x0, [sp, #48]
   8257c:	91017800 	add	x0, x0, #0x5e
   82580:	52800101 	mov	w1, #0x8                   	// #8
   82584:	94000096 	bl	827dc <ascii2int>
   82588:	93407c00 	sxtw	x0, w0
   8258c:	aa0003e2 	mov	x2, x0
   82590:	f94017e1 	ldr	x1, [sp, #40]
   82594:	aa1303e0 	mov	x0, x19
   82598:	97fffeac 	bl	82048 <strncmp>
   8259c:	7100001f 	cmp	w0, #0x0
   825a0:	54000081 	b.ne	825b0 <cpio_cat+0x68>  // b.any
   825a4:	f94023e0 	ldr	x0, [sp, #64]
   825a8:	97fffd33 	bl	81a74 <uart_puts>
   825ac:	1400000e 	b	825e4 <cpio_cat+0x9c>
   825b0:	f9401fe3 	ldr	x3, [sp, #56]
   825b4:	d2800142 	mov	x2, #0xa                   	// #10
   825b8:	d0000000 	adrp	x0, 84000 <list_del+0x40>
   825bc:	91166001 	add	x1, x0, #0x598
   825c0:	aa0303e0 	mov	x0, x3
   825c4:	97fffea1 	bl	82048 <strncmp>
   825c8:	7100001f 	cmp	w0, #0x0
   825cc:	54000040 	b.eq	825d4 <cpio_cat+0x8c>  // b.none
   825d0:	17ffffe6 	b	82568 <cpio_cat+0x20>
   825d4:	d503201f 	nop
   825d8:	d0000000 	adrp	x0, 84000 <list_del+0x40>
   825dc:	9116a000 	add	x0, x0, #0x5a8
   825e0:	97fffd25 	bl	81a74 <uart_puts>
   825e4:	f9400bf3 	ldr	x19, [sp, #16]
   825e8:	a8c57bfd 	ldp	x29, x30, [sp], #80
   825ec:	d65f03c0 	ret

00000000000825f0 <cpio_ls>:
   825f0:	a9bd7bfd 	stp	x29, x30, [sp, #-48]!
   825f4:	910003fd 	mov	x29, sp
   825f8:	d0000000 	adrp	x0, 84000 <list_del+0x40>
   825fc:	f9472400 	ldr	x0, [x0, #3656]
   82600:	f9400000 	ldr	x0, [x0]
   82604:	f90017e0 	str	x0, [sp, #40]
   82608:	910043e1 	add	x1, sp, #0x10
   8260c:	9100a3e0 	add	x0, sp, #0x28
   82610:	94000040 	bl	82710 <cpio_read_file>
   82614:	f9400fe3 	ldr	x3, [sp, #24]
   82618:	d2800142 	mov	x2, #0xa                   	// #10
   8261c:	d0000000 	adrp	x0, 84000 <list_del+0x40>
   82620:	91166001 	add	x1, x0, #0x598
   82624:	aa0303e0 	mov	x0, x3
   82628:	97fffe88 	bl	82048 <strncmp>
   8262c:	7100001f 	cmp	w0, #0x0
   82630:	540000e0 	b.eq	8264c <cpio_ls+0x5c>  // b.none
   82634:	f9400fe0 	ldr	x0, [sp, #24]
   82638:	97fffd0f 	bl	81a74 <uart_puts>
   8263c:	d0000000 	adrp	x0, 84000 <list_del+0x40>
   82640:	91170000 	add	x0, x0, #0x5c0
   82644:	97fffd0c 	bl	81a74 <uart_puts>
   82648:	17fffff0 	b	82608 <cpio_ls+0x18>
   8264c:	d503201f 	nop
   82650:	d503201f 	nop
   82654:	a8c37bfd 	ldp	x29, x30, [sp], #48
   82658:	d65f03c0 	ret

000000000008265c <cpio_get_file_info>:
   8265c:	a9bc7bfd 	stp	x29, x30, [sp, #-64]!
   82660:	910003fd 	mov	x29, sp
   82664:	f9000bf3 	str	x19, [sp, #16]
   82668:	f90017e0 	str	x0, [sp, #40]
   8266c:	f90013e1 	str	x1, [sp, #32]
   82670:	d0000000 	adrp	x0, 84000 <list_del+0x40>
   82674:	f9472400 	ldr	x0, [x0, #3656]
   82678:	f9400000 	ldr	x0, [x0]
   8267c:	f9001fe0 	str	x0, [sp, #56]
   82680:	9100e3e0 	add	x0, sp, #0x38
   82684:	f94013e1 	ldr	x1, [sp, #32]
   82688:	94000022 	bl	82710 <cpio_read_file>
   8268c:	f94013e0 	ldr	x0, [sp, #32]
   82690:	f9400413 	ldr	x19, [x0, #8]
   82694:	f94013e0 	ldr	x0, [sp, #32]
   82698:	f9400000 	ldr	x0, [x0]
   8269c:	91017800 	add	x0, x0, #0x5e
   826a0:	52800101 	mov	w1, #0x8                   	// #8
   826a4:	9400004e 	bl	827dc <ascii2int>
   826a8:	93407c00 	sxtw	x0, w0
   826ac:	aa0003e2 	mov	x2, x0
   826b0:	f94017e1 	ldr	x1, [sp, #40]
   826b4:	aa1303e0 	mov	x0, x19
   826b8:	97fffe64 	bl	82048 <strncmp>
   826bc:	7100001f 	cmp	w0, #0x0
   826c0:	54000200 	b.eq	82700 <cpio_get_file_info+0xa4>  // b.none
   826c4:	f94013e0 	ldr	x0, [sp, #32]
   826c8:	f9400403 	ldr	x3, [x0, #8]
   826cc:	d2800142 	mov	x2, #0xa                   	// #10
   826d0:	d0000000 	adrp	x0, 84000 <list_del+0x40>
   826d4:	91166001 	add	x1, x0, #0x598
   826d8:	aa0303e0 	mov	x0, x3
   826dc:	97fffe5b 	bl	82048 <strncmp>
   826e0:	7100001f 	cmp	w0, #0x0
   826e4:	54000040 	b.eq	826ec <cpio_get_file_info+0x90>  // b.none
   826e8:	17ffffe6 	b	82680 <cpio_get_file_info+0x24>
   826ec:	d503201f 	nop
   826f0:	d0000000 	adrp	x0, 84000 <list_del+0x40>
   826f4:	9116a000 	add	x0, x0, #0x5a8
   826f8:	97fffcdf 	bl	81a74 <uart_puts>
   826fc:	14000002 	b	82704 <cpio_get_file_info+0xa8>
   82700:	d503201f 	nop
   82704:	f9400bf3 	ldr	x19, [sp, #16]
   82708:	a8c47bfd 	ldp	x29, x30, [sp], #64
   8270c:	d65f03c0 	ret

0000000000082710 <cpio_read_file>:
   82710:	a9bd7bfd 	stp	x29, x30, [sp, #-48]!
   82714:	910003fd 	mov	x29, sp
   82718:	f9000fe0 	str	x0, [sp, #24]
   8271c:	f9000be1 	str	x1, [sp, #16]
   82720:	f9400fe0 	ldr	x0, [sp, #24]
   82724:	f9400000 	ldr	x0, [x0]
   82728:	f90017e0 	str	x0, [sp, #40]
   8272c:	f9400be0 	ldr	x0, [sp, #16]
   82730:	f94017e1 	ldr	x1, [sp, #40]
   82734:	f9000001 	str	x1, [x0]
   82738:	f94017e0 	ldr	x0, [sp, #40]
   8273c:	9101b800 	add	x0, x0, #0x6e
   82740:	f90017e0 	str	x0, [sp, #40]
   82744:	f9400be0 	ldr	x0, [sp, #16]
   82748:	f94017e1 	ldr	x1, [sp, #40]
   8274c:	f9000401 	str	x1, [x0, #8]
   82750:	f9400be0 	ldr	x0, [sp, #16]
   82754:	f9400000 	ldr	x0, [x0]
   82758:	91017800 	add	x0, x0, #0x5e
   8275c:	52800101 	mov	w1, #0x8                   	// #8
   82760:	9400001f 	bl	827dc <ascii2int>
   82764:	93407c00 	sxtw	x0, w0
   82768:	f94017e1 	ldr	x1, [sp, #40]
   8276c:	8b000020 	add	x0, x1, x0
   82770:	f90017e0 	str	x0, [sp, #40]
   82774:	f94017e0 	ldr	x0, [sp, #40]
   82778:	91000c00 	add	x0, x0, #0x3
   8277c:	927ef400 	and	x0, x0, #0xfffffffffffffffc
   82780:	f90017e0 	str	x0, [sp, #40]
   82784:	f9400be0 	ldr	x0, [sp, #16]
   82788:	f94017e1 	ldr	x1, [sp, #40]
   8278c:	f9000801 	str	x1, [x0, #16]
   82790:	f9400be0 	ldr	x0, [sp, #16]
   82794:	f9400000 	ldr	x0, [x0]
   82798:	9100d800 	add	x0, x0, #0x36
   8279c:	52800101 	mov	w1, #0x8                   	// #8
   827a0:	9400000f 	bl	827dc <ascii2int>
   827a4:	93407c00 	sxtw	x0, w0
   827a8:	f94017e1 	ldr	x1, [sp, #40]
   827ac:	8b000020 	add	x0, x1, x0
   827b0:	f90017e0 	str	x0, [sp, #40]
   827b4:	f94017e0 	ldr	x0, [sp, #40]
   827b8:	91000c00 	add	x0, x0, #0x3
   827bc:	927ef400 	and	x0, x0, #0xfffffffffffffffc
   827c0:	f90017e0 	str	x0, [sp, #40]
   827c4:	f9400fe0 	ldr	x0, [sp, #24]
   827c8:	f94017e1 	ldr	x1, [sp, #40]
   827cc:	f9000001 	str	x1, [x0]
   827d0:	d503201f 	nop
   827d4:	a8c37bfd 	ldp	x29, x30, [sp], #48
   827d8:	d65f03c0 	ret

00000000000827dc <ascii2int>:
   827dc:	d10083ff 	sub	sp, sp, #0x20
   827e0:	f90007e0 	str	x0, [sp, #8]
   827e4:	b90007e1 	str	w1, [sp, #4]
   827e8:	b9001fff 	str	wzr, [sp, #28]
   827ec:	b9001bff 	str	wzr, [sp, #24]
   827f0:	1400001b 	b	8285c <ascii2int+0x80>
   827f4:	b9401fe0 	ldr	w0, [sp, #28]
   827f8:	531c6c00 	lsl	w0, w0, #4
   827fc:	b9001fe0 	str	w0, [sp, #28]
   82800:	b9801be0 	ldrsw	x0, [sp, #24]
   82804:	f94007e1 	ldr	x1, [sp, #8]
   82808:	8b000020 	add	x0, x1, x0
   8280c:	39400000 	ldrb	w0, [x0]
   82810:	7100e41f 	cmp	w0, #0x39
   82814:	540000e9 	b.ls	82830 <ascii2int+0x54>  // b.plast
   82818:	b9801be0 	ldrsw	x0, [sp, #24]
   8281c:	f94007e1 	ldr	x1, [sp, #8]
   82820:	8b000020 	add	x0, x1, x0
   82824:	39400000 	ldrb	w0, [x0]
   82828:	5100dc00 	sub	w0, w0, #0x37
   8282c:	14000006 	b	82844 <ascii2int+0x68>
   82830:	b9801be0 	ldrsw	x0, [sp, #24]
   82834:	f94007e1 	ldr	x1, [sp, #8]
   82838:	8b000020 	add	x0, x1, x0
   8283c:	39400000 	ldrb	w0, [x0]
   82840:	5100c000 	sub	w0, w0, #0x30
   82844:	b9401fe1 	ldr	w1, [sp, #28]
   82848:	0b000020 	add	w0, w1, w0
   8284c:	b9001fe0 	str	w0, [sp, #28]
   82850:	b9401be0 	ldr	w0, [sp, #24]
   82854:	11000400 	add	w0, w0, #0x1
   82858:	b9001be0 	str	w0, [sp, #24]
   8285c:	b9401be1 	ldr	w1, [sp, #24]
   82860:	b94007e0 	ldr	w0, [sp, #4]
   82864:	6b00003f 	cmp	w1, w0
   82868:	54fffc6b 	b.lt	827f4 <ascii2int+0x18>  // b.tstop
   8286c:	b9401fe0 	ldr	w0, [sp, #28]
   82870:	910083ff 	add	sp, sp, #0x20
   82874:	d65f03c0 	ret

0000000000082878 <main>:
   82878:	a9bf7bfd 	stp	x29, x30, [sp, #-16]!
   8287c:	910003fd 	mov	x29, sp
   82880:	aa0003e1 	mov	x1, x0
   82884:	d0000000 	adrp	x0, 84000 <list_del+0x40>
   82888:	f9473000 	ldr	x0, [x0, #3680]
   8288c:	f9000001 	str	x1, [x0]
   82890:	97fffbec 	bl	81840 <uart_init>
   82894:	d0000000 	adrp	x0, 84000 <list_del+0x40>
   82898:	f946fc00 	ldr	x0, [x0, #3576]
   8289c:	97fffb4f 	bl	815d8 <dtb_parse>
   828a0:	940002ab 	bl	8334c <init_buddy>
   828a4:	d0000000 	adrp	x0, 84000 <list_del+0x40>
   828a8:	91172000 	add	x0, x0, #0x5c8
   828ac:	97fffc72 	bl	81a74 <uart_puts>
   828b0:	52820001 	mov	w1, #0x1000                	// #4096
   828b4:	52800000 	mov	w0, #0x0                   	// #0
   828b8:	9400039b 	bl	83724 <reserve_memory>
   828bc:	d0000000 	adrp	x0, 84000 <list_del+0x40>
   828c0:	91178000 	add	x0, x0, #0x5e0
   828c4:	97fffc6c 	bl	81a74 <uart_puts>
   828c8:	52a00201 	mov	w1, #0x100000              	// #1048576
   828cc:	52a000c0 	mov	w0, #0x60000               	// #393216
   828d0:	94000395 	bl	83724 <reserve_memory>
   828d4:	d0000000 	adrp	x0, 84000 <list_del+0x40>
   828d8:	9117e000 	add	x0, x0, #0x5f8
   828dc:	97fffc66 	bl	81a74 <uart_puts>
   828e0:	d0000000 	adrp	x0, 84000 <list_del+0x40>
   828e4:	f9472400 	ldr	x0, [x0, #3656]
   828e8:	f9400002 	ldr	x2, [x0]
   828ec:	d0000000 	adrp	x0, 84000 <list_del+0x40>
   828f0:	f9474000 	ldr	x0, [x0, #3712]
   828f4:	f9400000 	ldr	x0, [x0]
   828f8:	aa0003e1 	mov	x1, x0
   828fc:	aa0203e0 	mov	x0, x2
   82900:	94000389 	bl	83724 <reserve_memory>
   82904:	d0000000 	adrp	x0, 84000 <list_del+0x40>
   82908:	91182000 	add	x0, x0, #0x608
   8290c:	97fffc5a 	bl	81a74 <uart_puts>
   82910:	d0000000 	adrp	x0, 84000 <list_del+0x40>
   82914:	f9473000 	ldr	x0, [x0, #3680]
   82918:	f9400002 	ldr	x2, [x0]
   8291c:	d0000000 	adrp	x0, 84000 <list_del+0x40>
   82920:	f9473400 	ldr	x0, [x0, #3688]
   82924:	f9400000 	ldr	x0, [x0]
   82928:	aa0003e1 	mov	x1, x0
   8292c:	aa0203e0 	mov	x0, x2
   82930:	9400037d 	bl	83724 <reserve_memory>
   82934:	d0000000 	adrp	x0, 84000 <list_del+0x40>
   82938:	91188000 	add	x0, x0, #0x620
   8293c:	97fffc4e 	bl	81a74 <uart_puts>
   82940:	d0000000 	adrp	x0, 84000 <list_del+0x40>
   82944:	91372000 	add	x0, x0, #0xdc8
   82948:	b9400002 	ldr	w2, [x0]
   8294c:	d0000000 	adrp	x0, 84000 <list_del+0x40>
   82950:	91372000 	add	x0, x0, #0xdc8
   82954:	b9400001 	ldr	w1, [x0]
   82958:	d0000000 	adrp	x0, 84000 <list_del+0x40>
   8295c:	91373000 	add	x0, x0, #0xdcc
   82960:	b9400000 	ldr	w0, [x0]
   82964:	0b000020 	add	w0, w1, w0
   82968:	2a0003e1 	mov	w1, w0
   8296c:	2a0203e0 	mov	w0, w2
   82970:	9400036d 	bl	83724 <reserve_memory>
   82974:	9400047d 	bl	83b68 <build_free_list>
   82978:	94000299 	bl	833dc <build_buddy>
   8297c:	940005dc 	bl	840ec <mm_init>
   82980:	97fff9aa 	bl	81028 <set_start_time>
   82984:	9400014c 	bl	82eb4 <shell>
   82988:	d503201f 	nop
   8298c:	a8c17bfd 	ldp	x29, x30, [sp], #16
   82990:	d65f03c0 	ret

0000000000082994 <set>:
   82994:	d10083ff 	sub	sp, sp, #0x20
   82998:	f90007e0 	str	x0, [sp, #8]
   8299c:	b90007e1 	str	w1, [sp, #4]
   829a0:	f94007e0 	ldr	x0, [sp, #8]
   829a4:	f9000fe0 	str	x0, [sp, #24]
   829a8:	f9400fe0 	ldr	x0, [sp, #24]
   829ac:	b94007e1 	ldr	w1, [sp, #4]
   829b0:	b9000001 	str	w1, [x0]
   829b4:	d503201f 	nop
   829b8:	910083ff 	add	sp, sp, #0x20
   829bc:	d65f03c0 	ret

00000000000829c0 <reset>:
   829c0:	a9be7bfd 	stp	x29, x30, [sp, #-32]!
   829c4:	910003fd 	mov	x29, sp
   829c8:	b9001fe0 	str	w0, [sp, #28]
   829cc:	52800401 	mov	w1, #0x20                  	// #32
   829d0:	72ab4001 	movk	w1, #0x5a00, lsl #16
   829d4:	d2800380 	mov	x0, #0x1c                  	// #28
   829d8:	f2a7e200 	movk	x0, #0x3f10, lsl #16
   829dc:	97ffffee 	bl	82994 <set>
   829e0:	b9401fe1 	ldr	w1, [sp, #28]
   829e4:	52ab4000 	mov	w0, #0x5a000000            	// #1509949440
   829e8:	2a000020 	orr	w0, w1, w0
   829ec:	2a0003e1 	mov	w1, w0
   829f0:	d2800480 	mov	x0, #0x24                  	// #36
   829f4:	f2a7e200 	movk	x0, #0x3f10, lsl #16
   829f8:	97ffffe7 	bl	82994 <set>
   829fc:	d503201f 	nop
   82a00:	a8c27bfd 	ldp	x29, x30, [sp], #32
   82a04:	d65f03c0 	ret

0000000000082a08 <cancel_reset>:
   82a08:	a9bf7bfd 	stp	x29, x30, [sp, #-16]!
   82a0c:	910003fd 	mov	x29, sp
   82a10:	52ab4001 	mov	w1, #0x5a000000            	// #1509949440
   82a14:	d2800380 	mov	x0, #0x1c                  	// #28
   82a18:	f2a7e200 	movk	x0, #0x3f10, lsl #16
   82a1c:	97ffffde 	bl	82994 <set>
   82a20:	52ab4001 	mov	w1, #0x5a000000            	// #1509949440
   82a24:	d2800480 	mov	x0, #0x24                  	// #36
   82a28:	f2a7e200 	movk	x0, #0x3f10, lsl #16
   82a2c:	97ffffda 	bl	82994 <set>
   82a30:	d503201f 	nop
   82a34:	a8c17bfd 	ldp	x29, x30, [sp], #16
   82a38:	d65f03c0 	ret

0000000000082a3c <PrintHelp>:
   82a3c:	a9bf7bfd 	stp	x29, x30, [sp, #-16]!
   82a40:	910003fd 	mov	x29, sp
   82a44:	d0000000 	adrp	x0, 84000 <list_del+0x40>
   82a48:	9118e000 	add	x0, x0, #0x638
   82a4c:	97fffc0a 	bl	81a74 <uart_puts>
   82a50:	d0000000 	adrp	x0, 84000 <list_del+0x40>
   82a54:	9119a000 	add	x0, x0, #0x668
   82a58:	97fffc07 	bl	81a74 <uart_puts>
   82a5c:	d0000000 	adrp	x0, 84000 <list_del+0x40>
   82a60:	911a6000 	add	x0, x0, #0x698
   82a64:	97fffc04 	bl	81a74 <uart_puts>
   82a68:	d0000000 	adrp	x0, 84000 <list_del+0x40>
   82a6c:	911b2000 	add	x0, x0, #0x6c8
   82a70:	97fffc01 	bl	81a74 <uart_puts>
   82a74:	d0000000 	adrp	x0, 84000 <list_del+0x40>
   82a78:	911bc000 	add	x0, x0, #0x6f0
   82a7c:	97fffbfe 	bl	81a74 <uart_puts>
   82a80:	d0000000 	adrp	x0, 84000 <list_del+0x40>
   82a84:	911ca000 	add	x0, x0, #0x728
   82a88:	97fffbfb 	bl	81a74 <uart_puts>
   82a8c:	d0000000 	adrp	x0, 84000 <list_del+0x40>
   82a90:	911d8000 	add	x0, x0, #0x760
   82a94:	97fffbf8 	bl	81a74 <uart_puts>
   82a98:	d0000000 	adrp	x0, 84000 <list_del+0x40>
   82a9c:	911e6000 	add	x0, x0, #0x798
   82aa0:	97fffbf5 	bl	81a74 <uart_puts>
   82aa4:	d0000000 	adrp	x0, 84000 <list_del+0x40>
   82aa8:	911f0000 	add	x0, x0, #0x7c0
   82aac:	97fffbf2 	bl	81a74 <uart_puts>
   82ab0:	d0000000 	adrp	x0, 84000 <list_del+0x40>
   82ab4:	911fa000 	add	x0, x0, #0x7e8
   82ab8:	97fffbef 	bl	81a74 <uart_puts>
   82abc:	d0000000 	adrp	x0, 84000 <list_del+0x40>
   82ac0:	91204000 	add	x0, x0, #0x810
   82ac4:	97fffbec 	bl	81a74 <uart_puts>
   82ac8:	d0000000 	adrp	x0, 84000 <list_del+0x40>
   82acc:	9120e000 	add	x0, x0, #0x838
   82ad0:	97fffbe9 	bl	81a74 <uart_puts>
   82ad4:	d0000000 	adrp	x0, 84000 <list_del+0x40>
   82ad8:	91218000 	add	x0, x0, #0x860
   82adc:	97fffbe6 	bl	81a74 <uart_puts>
   82ae0:	d0000000 	adrp	x0, 84000 <list_del+0x40>
   82ae4:	91222000 	add	x0, x0, #0x888
   82ae8:	97fffbe3 	bl	81a74 <uart_puts>
   82aec:	d503201f 	nop
   82af0:	a8c17bfd 	ldp	x29, x30, [sp], #16
   82af4:	d65f03c0 	ret

0000000000082af8 <jump2usr_prog>:
   82af8:	a9bc7bfd 	stp	x29, x30, [sp, #-64]!
   82afc:	910003fd 	mov	x29, sp
   82b00:	f9000fe0 	str	x0, [sp, #24]
   82b04:	f9400fe0 	ldr	x0, [sp, #24]
   82b08:	f9400000 	ldr	x0, [x0]
   82b0c:	9100d800 	add	x0, x0, #0x36
   82b10:	52800101 	mov	w1, #0x8                   	// #8
   82b14:	97ffff32 	bl	827dc <ascii2int>
   82b18:	93407c00 	sxtw	x0, w0
   82b1c:	f9001fe0 	str	x0, [sp, #56]
   82b20:	f9401fe0 	ldr	x0, [sp, #56]
   82b24:	97fff95b 	bl	81090 <simple_alloc>
   82b28:	93407c00 	sxtw	x0, w0
   82b2c:	f9001be0 	str	x0, [sp, #48]
   82b30:	f9400fe0 	ldr	x0, [sp, #24]
   82b34:	f9400800 	ldr	x0, [x0, #16]
   82b38:	f9401fe2 	ldr	x2, [sp, #56]
   82b3c:	aa0003e1 	mov	x1, x0
   82b40:	f9401be0 	ldr	x0, [sp, #48]
   82b44:	94000015 	bl	82b98 <copy_prog_from_cpio>
   82b48:	d2806800 	mov	x0, #0x340                 	// #832
   82b4c:	f90017e0 	str	x0, [sp, #40]
   82b50:	52900000 	mov	w0, #0x8000                	// #32768
   82b54:	97fff94f 	bl	81090 <simple_alloc>
   82b58:	93407c00 	sxtw	x0, w0
   82b5c:	f90013e0 	str	x0, [sp, #32]
   82b60:	f94013e0 	ldr	x0, [sp, #32]
   82b64:	91402000 	add	x0, x0, #0x8, lsl #12
   82b68:	f90013e0 	str	x0, [sp, #32]
   82b6c:	97fffd0c 	bl	81f9c <disable_recieve_irq>
   82b70:	f94017e0 	ldr	x0, [sp, #40]
   82b74:	d5184000 	msr	spsr_el1, x0
   82b78:	f9401be0 	ldr	x0, [sp, #48]
   82b7c:	d5184020 	msr	elr_el1, x0
   82b80:	f94013e0 	ldr	x0, [sp, #32]
   82b84:	d5184100 	msr	sp_el0, x0
   82b88:	d69f03e0 	eret
   82b8c:	d503201f 	nop
   82b90:	a8c47bfd 	ldp	x29, x30, [sp], #64
   82b94:	d65f03c0 	ret

0000000000082b98 <copy_prog_from_cpio>:
   82b98:	a9bd7bfd 	stp	x29, x30, [sp, #-48]!
   82b9c:	910003fd 	mov	x29, sp
   82ba0:	f90017e0 	str	x0, [sp, #40]
   82ba4:	f90013e1 	str	x1, [sp, #32]
   82ba8:	f9000fe2 	str	x2, [sp, #24]
   82bac:	f9400fe2 	ldr	x2, [sp, #24]
   82bb0:	f94013e1 	ldr	x1, [sp, #32]
   82bb4:	f94017e0 	ldr	x0, [sp, #40]
   82bb8:	97fffd08 	bl	81fd8 <memcpy>
   82bbc:	d503201f 	nop
   82bc0:	a8c37bfd 	ldp	x29, x30, [sp], #48
   82bc4:	d65f03c0 	ret

0000000000082bc8 <PrintHello>:
   82bc8:	a9bf7bfd 	stp	x29, x30, [sp, #-16]!
   82bcc:	910003fd 	mov	x29, sp
   82bd0:	d0000000 	adrp	x0, 84000 <list_del+0x40>
   82bd4:	91224000 	add	x0, x0, #0x890
   82bd8:	97fffba7 	bl	81a74 <uart_puts>
   82bdc:	d503201f 	nop
   82be0:	a8c17bfd 	ldp	x29, x30, [sp], #16
   82be4:	d65f03c0 	ret

0000000000082be8 <PrintInfo>:
   82be8:	a9bf7bfd 	stp	x29, x30, [sp, #-16]!
   82bec:	910003fd 	mov	x29, sp
   82bf0:	d0000000 	adrp	x0, 84000 <list_del+0x40>
   82bf4:	f9470400 	ldr	x0, [x0, #3592]
   82bf8:	52800381 	mov	w1, #0x1c                  	// #28
   82bfc:	b9000001 	str	w1, [x0]
   82c00:	d0000000 	adrp	x0, 84000 <list_del+0x40>
   82c04:	f9470400 	ldr	x0, [x0, #3592]
   82c08:	b900041f 	str	wzr, [x0, #4]
   82c0c:	d0000000 	adrp	x0, 84000 <list_del+0x40>
   82c10:	f9470400 	ldr	x0, [x0, #3592]
   82c14:	52800041 	mov	w1, #0x2                   	// #2
   82c18:	72a00021 	movk	w1, #0x1, lsl #16
   82c1c:	b9000801 	str	w1, [x0, #8]
   82c20:	d0000000 	adrp	x0, 84000 <list_del+0x40>
   82c24:	f9470400 	ldr	x0, [x0, #3592]
   82c28:	52800081 	mov	w1, #0x4                   	// #4
   82c2c:	b9000c01 	str	w1, [x0, #12]
   82c30:	d0000000 	adrp	x0, 84000 <list_del+0x40>
   82c34:	f9470400 	ldr	x0, [x0, #3592]
   82c38:	b900101f 	str	wzr, [x0, #16]
   82c3c:	d0000000 	adrp	x0, 84000 <list_del+0x40>
   82c40:	f9470400 	ldr	x0, [x0, #3592]
   82c44:	b900141f 	str	wzr, [x0, #20]
   82c48:	d0000000 	adrp	x0, 84000 <list_del+0x40>
   82c4c:	f9470400 	ldr	x0, [x0, #3592]
   82c50:	b900181f 	str	wzr, [x0, #24]
   82c54:	52800100 	mov	w0, #0x8                   	// #8
   82c58:	940004fc 	bl	84048 <mbox_call>
   82c5c:	7100001f 	cmp	w0, #0x0
   82c60:	54000180 	b.eq	82c90 <PrintInfo+0xa8>  // b.none
   82c64:	d0000000 	adrp	x0, 84000 <list_del+0x40>
   82c68:	91228000 	add	x0, x0, #0x8a0
   82c6c:	97fffb82 	bl	81a74 <uart_puts>
   82c70:	d0000000 	adrp	x0, 84000 <list_del+0x40>
   82c74:	f9470400 	ldr	x0, [x0, #3592]
   82c78:	b9401400 	ldr	w0, [x0, #20]
   82c7c:	97fffbd6 	bl	81bd4 <uart_hex>
   82c80:	d0000000 	adrp	x0, 84000 <list_del+0x40>
   82c84:	91222000 	add	x0, x0, #0x888
   82c88:	97fffb7b 	bl	81a74 <uart_puts>
   82c8c:	14000004 	b	82c9c <PrintInfo+0xb4>
   82c90:	d0000000 	adrp	x0, 84000 <list_del+0x40>
   82c94:	91230000 	add	x0, x0, #0x8c0
   82c98:	97fffb77 	bl	81a74 <uart_puts>
   82c9c:	d0000000 	adrp	x0, 84000 <list_del+0x40>
   82ca0:	f9470400 	ldr	x0, [x0, #3592]
   82ca4:	52800401 	mov	w1, #0x20                  	// #32
   82ca8:	b9000001 	str	w1, [x0]
   82cac:	d0000000 	adrp	x0, 84000 <list_del+0x40>
   82cb0:	f9470400 	ldr	x0, [x0, #3592]
   82cb4:	b900041f 	str	wzr, [x0, #4]
   82cb8:	d0000000 	adrp	x0, 84000 <list_del+0x40>
   82cbc:	f9470400 	ldr	x0, [x0, #3592]
   82cc0:	528000a1 	mov	w1, #0x5                   	// #5
   82cc4:	72a00021 	movk	w1, #0x1, lsl #16
   82cc8:	b9000801 	str	w1, [x0, #8]
   82ccc:	d0000000 	adrp	x0, 84000 <list_del+0x40>
   82cd0:	f9470400 	ldr	x0, [x0, #3592]
   82cd4:	52800101 	mov	w1, #0x8                   	// #8
   82cd8:	b9000c01 	str	w1, [x0, #12]
   82cdc:	d0000000 	adrp	x0, 84000 <list_del+0x40>
   82ce0:	f9470400 	ldr	x0, [x0, #3592]
   82ce4:	b900101f 	str	wzr, [x0, #16]
   82ce8:	d0000000 	adrp	x0, 84000 <list_del+0x40>
   82cec:	f9470400 	ldr	x0, [x0, #3592]
   82cf0:	b900141f 	str	wzr, [x0, #20]
   82cf4:	d0000000 	adrp	x0, 84000 <list_del+0x40>
   82cf8:	f9470400 	ldr	x0, [x0, #3592]
   82cfc:	b900181f 	str	wzr, [x0, #24]
   82d00:	d0000000 	adrp	x0, 84000 <list_del+0x40>
   82d04:	f9470400 	ldr	x0, [x0, #3592]
   82d08:	b9001c1f 	str	wzr, [x0, #28]
   82d0c:	52800100 	mov	w0, #0x8                   	// #8
   82d10:	940004ce 	bl	84048 <mbox_call>
   82d14:	7100001f 	cmp	w0, #0x0
   82d18:	540002c0 	b.eq	82d70 <PrintInfo+0x188>  // b.none
   82d1c:	d0000000 	adrp	x0, 84000 <list_del+0x40>
   82d20:	91238000 	add	x0, x0, #0x8e0
   82d24:	97fffb54 	bl	81a74 <uart_puts>
   82d28:	d0000000 	adrp	x0, 84000 <list_del+0x40>
   82d2c:	f9470400 	ldr	x0, [x0, #3592]
   82d30:	b9401400 	ldr	w0, [x0, #20]
   82d34:	97fffba8 	bl	81bd4 <uart_hex>
   82d38:	d0000000 	adrp	x0, 84000 <list_del+0x40>
   82d3c:	91222000 	add	x0, x0, #0x888
   82d40:	97fffb4d 	bl	81a74 <uart_puts>
   82d44:	d0000000 	adrp	x0, 84000 <list_del+0x40>
   82d48:	91240000 	add	x0, x0, #0x900
   82d4c:	97fffb4a 	bl	81a74 <uart_puts>
   82d50:	d0000000 	adrp	x0, 84000 <list_del+0x40>
   82d54:	f9470400 	ldr	x0, [x0, #3592]
   82d58:	b9401800 	ldr	w0, [x0, #24]
   82d5c:	97fffb9e 	bl	81bd4 <uart_hex>
   82d60:	d0000000 	adrp	x0, 84000 <list_del+0x40>
   82d64:	91222000 	add	x0, x0, #0x888
   82d68:	97fffb43 	bl	81a74 <uart_puts>
   82d6c:	14000004 	b	82d7c <PrintInfo+0x194>
   82d70:	d0000000 	adrp	x0, 84000 <list_del+0x40>
   82d74:	91230000 	add	x0, x0, #0x8c0
   82d78:	97fffb3f 	bl	81a74 <uart_puts>
   82d7c:	d503201f 	nop
   82d80:	a8c17bfd 	ldp	x29, x30, [sp], #16
   82d84:	d65f03c0 	ret

0000000000082d88 <clear_screen>:
   82d88:	a9bf7bfd 	stp	x29, x30, [sp, #-16]!
   82d8c:	910003fd 	mov	x29, sp
   82d90:	52800360 	mov	w0, #0x1b                  	// #27
   82d94:	97fffb19 	bl	819f8 <uart_send>
   82d98:	d0000000 	adrp	x0, 84000 <list_del+0x40>
   82d9c:	91246000 	add	x0, x0, #0x918
   82da0:	97fffb35 	bl	81a74 <uart_puts>
   82da4:	52800360 	mov	w0, #0x1b                  	// #27
   82da8:	97fffb14 	bl	819f8 <uart_send>
   82dac:	d0000000 	adrp	x0, 84000 <list_del+0x40>
   82db0:	91248000 	add	x0, x0, #0x920
   82db4:	97fffb30 	bl	81a74 <uart_puts>
   82db8:	d503201f 	nop
   82dbc:	a8c17bfd 	ldp	x29, x30, [sp], #16
   82dc0:	d65f03c0 	ret

0000000000082dc4 <alloc_test>:
   82dc4:	a9bd7bfd 	stp	x29, x30, [sp, #-48]!
   82dc8:	910003fd 	mov	x29, sp
   82dcc:	f9000fe0 	str	x0, [sp, #24]
   82dd0:	f9400fe0 	ldr	x0, [sp, #24]
   82dd4:	97fff8ca 	bl	810fc <atoi>
   82dd8:	93407c00 	sxtw	x0, w0
   82ddc:	f90017e0 	str	x0, [sp, #40]
   82de0:	f94017e0 	ldr	x0, [sp, #40]
   82de4:	f100001f 	cmp	x0, #0x0
   82de8:	54000260 	b.eq	82e34 <alloc_test+0x70>  // b.none
   82dec:	f94017e0 	ldr	x0, [sp, #40]
   82df0:	97fff8a8 	bl	81090 <simple_alloc>
   82df4:	93407c00 	sxtw	x0, w0
   82df8:	f90013e0 	str	x0, [sp, #32]
   82dfc:	d0000000 	adrp	x0, 84000 <list_del+0x40>
   82e00:	9124a000 	add	x0, x0, #0x928
   82e04:	97fffb1c 	bl	81a74 <uart_puts>
   82e08:	f94013e0 	ldr	x0, [sp, #32]
   82e0c:	97fffb72 	bl	81bd4 <uart_hex>
   82e10:	d0000000 	adrp	x0, 84000 <list_del+0x40>
   82e14:	91250000 	add	x0, x0, #0x940
   82e18:	97fffb17 	bl	81a74 <uart_puts>
   82e1c:	f94017e0 	ldr	x0, [sp, #40]
   82e20:	97fffb8c 	bl	81c50 <uart_dec>
   82e24:	d0000000 	adrp	x0, 84000 <list_del+0x40>
   82e28:	91254000 	add	x0, x0, #0x950
   82e2c:	97fffb12 	bl	81a74 <uart_puts>
   82e30:	14000002 	b	82e38 <alloc_test+0x74>
   82e34:	d503201f 	nop
   82e38:	a8c37bfd 	ldp	x29, x30, [sp], #48
   82e3c:	d65f03c0 	ret

0000000000082e40 <svc_handler>:
   82e40:	a9be7bfd 	stp	x29, x30, [sp, #-32]!
   82e44:	910003fd 	mov	x29, sp
   82e48:	d5384000 	mrs	x0, spsr_el1
   82e4c:	b9001fe0 	str	w0, [sp, #28]
   82e50:	d0000000 	adrp	x0, 84000 <list_del+0x40>
   82e54:	91256000 	add	x0, x0, #0x958
   82e58:	97fffb49 	bl	81b7c <sync_uart_puts>
   82e5c:	b9401fe0 	ldr	w0, [sp, #28]
   82e60:	97fffb5d 	bl	81bd4 <uart_hex>
   82e64:	d5384020 	mrs	x0, elr_el1
   82e68:	b9001fe0 	str	w0, [sp, #28]
   82e6c:	d0000000 	adrp	x0, 84000 <list_del+0x40>
   82e70:	9125a000 	add	x0, x0, #0x968
   82e74:	97fffb42 	bl	81b7c <sync_uart_puts>
   82e78:	b9401fe0 	ldr	w0, [sp, #28]
   82e7c:	97fffb56 	bl	81bd4 <uart_hex>
   82e80:	d5385200 	mrs	x0, esr_el1
   82e84:	b9001fe0 	str	w0, [sp, #28]
   82e88:	d0000000 	adrp	x0, 84000 <list_del+0x40>
   82e8c:	9125e000 	add	x0, x0, #0x978
   82e90:	97fffb3b 	bl	81b7c <sync_uart_puts>
   82e94:	b9401fe0 	ldr	w0, [sp, #28]
   82e98:	97fffb4f 	bl	81bd4 <uart_hex>
   82e9c:	d0000000 	adrp	x0, 84000 <list_del+0x40>
   82ea0:	91222000 	add	x0, x0, #0x888
   82ea4:	97fffb36 	bl	81b7c <sync_uart_puts>
   82ea8:	d503201f 	nop
   82eac:	a8c27bfd 	ldp	x29, x30, [sp], #32
   82eb0:	d65f03c0 	ret

0000000000082eb4 <shell>:
   82eb4:	a9bf7bfd 	stp	x29, x30, [sp, #-16]!
   82eb8:	910003fd 	mov	x29, sp
   82ebc:	97fffee0 	bl	82a3c <PrintHelp>
   82ec0:	d0000000 	adrp	x0, 84000 <list_del+0x40>
   82ec4:	f9472c00 	ldr	x0, [x0, #3672]
   82ec8:	b9400000 	ldr	w0, [x0]
   82ecc:	7100001f 	cmp	w0, #0x0
   82ed0:	54000180 	b.eq	82f00 <shell+0x4c>  // b.none
   82ed4:	d0000000 	adrp	x0, 84000 <list_del+0x40>
   82ed8:	f9472c00 	ldr	x0, [x0, #3672]
   82edc:	b9400000 	ldr	w0, [x0]
   82ee0:	51000402 	sub	w2, w0, #0x1
   82ee4:	d0000000 	adrp	x0, 84000 <list_del+0x40>
   82ee8:	f9473801 	ldr	x1, [x0, #3696]
   82eec:	2a0203e0 	mov	w0, w2
   82ef0:	38606820 	ldrb	w0, [x1, x0]
   82ef4:	7100341f 	cmp	w0, #0xd
   82ef8:	54000041 	b.ne	82f00 <shell+0x4c>  // b.any
   82efc:	94000004 	bl	82f0c <cmd_handler>
   82f00:	d503201f 	nop
   82f04:	d503201f 	nop
   82f08:	17ffffee 	b	82ec0 <shell+0xc>

0000000000082f0c <cmd_handler>:
   82f0c:	a9bc7bfd 	stp	x29, x30, [sp, #-64]!
   82f10:	910003fd 	mov	x29, sp
   82f14:	b9003fff 	str	wzr, [sp, #60]
   82f18:	14000010 	b	82f58 <cmd_handler+0x4c>
   82f1c:	d0000000 	adrp	x0, 84000 <list_del+0x40>
   82f20:	f9473801 	ldr	x1, [x0, #3696]
   82f24:	b9803fe0 	ldrsw	x0, [sp, #60]
   82f28:	38606822 	ldrb	w2, [x1, x0]
   82f2c:	d0000000 	adrp	x0, 84000 <list_del+0x40>
   82f30:	f9471c01 	ldr	x1, [x0, #3640]
   82f34:	b9803fe0 	ldrsw	x0, [sp, #60]
   82f38:	38206822 	strb	w2, [x1, x0]
   82f3c:	d0000000 	adrp	x0, 84000 <list_del+0x40>
   82f40:	f9473801 	ldr	x1, [x0, #3696]
   82f44:	b9803fe0 	ldrsw	x0, [sp, #60]
   82f48:	3820683f 	strb	wzr, [x1, x0]
   82f4c:	b9403fe0 	ldr	w0, [sp, #60]
   82f50:	11000400 	add	w0, w0, #0x1
   82f54:	b9003fe0 	str	w0, [sp, #60]
   82f58:	b9403fe1 	ldr	w1, [sp, #60]
   82f5c:	d0000000 	adrp	x0, 84000 <list_del+0x40>
   82f60:	f9472c00 	ldr	x0, [x0, #3672]
   82f64:	b9400000 	ldr	w0, [x0]
   82f68:	6b00003f 	cmp	w1, w0
   82f6c:	54fffd83 	b.cc	82f1c <cmd_handler+0x10>  // b.lo, b.ul, b.last
   82f70:	b9403fe0 	ldr	w0, [sp, #60]
   82f74:	51000400 	sub	w0, w0, #0x1
   82f78:	b9003fe0 	str	w0, [sp, #60]
   82f7c:	d0000000 	adrp	x0, 84000 <list_del+0x40>
   82f80:	f9471c01 	ldr	x1, [x0, #3640]
   82f84:	b9803fe0 	ldrsw	x0, [sp, #60]
   82f88:	3820683f 	strb	wzr, [x1, x0]
   82f8c:	d0000000 	adrp	x0, 84000 <list_del+0x40>
   82f90:	f9472c00 	ldr	x0, [x0, #3672]
   82f94:	b900001f 	str	wzr, [x0]
   82f98:	52800401 	mov	w1, #0x20                  	// #32
   82f9c:	d0000000 	adrp	x0, 84000 <list_del+0x40>
   82fa0:	f9471c00 	ldr	x0, [x0, #3640]
   82fa4:	97fffcaf 	bl	82260 <strtok>
   82fa8:	f9001be0 	str	x0, [sp, #48]
   82fac:	d0000000 	adrp	x0, 84000 <list_del+0x40>
   82fb0:	91262001 	add	x1, x0, #0x988
   82fb4:	f9401be0 	ldr	x0, [sp, #48]
   82fb8:	97fffc5d 	bl	8212c <strcmp>
   82fbc:	7100001f 	cmp	w0, #0x0
   82fc0:	54000061 	b.ne	82fcc <cmd_handler+0xc0>  // b.any
   82fc4:	97fffe9e 	bl	82a3c <PrintHelp>
   82fc8:	140000d2 	b	83310 <cmd_handler+0x404>
   82fcc:	d0000000 	adrp	x0, 84000 <list_del+0x40>
   82fd0:	91264001 	add	x1, x0, #0x990
   82fd4:	f9401be0 	ldr	x0, [sp, #48]
   82fd8:	97fffc55 	bl	8212c <strcmp>
   82fdc:	7100001f 	cmp	w0, #0x0
   82fe0:	54000061 	b.ne	82fec <cmd_handler+0xe0>  // b.any
   82fe4:	97fffef9 	bl	82bc8 <PrintHello>
   82fe8:	140000ca 	b	83310 <cmd_handler+0x404>
   82fec:	d0000000 	adrp	x0, 84000 <list_del+0x40>
   82ff0:	91266001 	add	x1, x0, #0x998
   82ff4:	f9401be0 	ldr	x0, [sp, #48]
   82ff8:	97fffc4d 	bl	8212c <strcmp>
   82ffc:	7100001f 	cmp	w0, #0x0
   83000:	54000061 	b.ne	8300c <cmd_handler+0x100>  // b.any
   83004:	97fffef9 	bl	82be8 <PrintInfo>
   83008:	140000c2 	b	83310 <cmd_handler+0x404>
   8300c:	b0000000 	adrp	x0, 84000 <list_del+0x40>
   83010:	91268001 	add	x1, x0, #0x9a0
   83014:	f9401be0 	ldr	x0, [sp, #48]
   83018:	97fffc45 	bl	8212c <strcmp>
   8301c:	7100001f 	cmp	w0, #0x0
   83020:	54000081 	b.ne	83030 <cmd_handler+0x124>  // b.any
   83024:	52800c80 	mov	w0, #0x64                  	// #100
   83028:	97fffe66 	bl	829c0 <reset>
   8302c:	140000b9 	b	83310 <cmd_handler+0x404>
   83030:	b0000000 	adrp	x0, 84000 <list_del+0x40>
   83034:	9126a001 	add	x1, x0, #0x9a8
   83038:	f9401be0 	ldr	x0, [sp, #48]
   8303c:	97fffc3c 	bl	8212c <strcmp>
   83040:	7100001f 	cmp	w0, #0x0
   83044:	54000061 	b.ne	83050 <cmd_handler+0x144>  // b.any
   83048:	97ffff50 	bl	82d88 <clear_screen>
   8304c:	140000b1 	b	83310 <cmd_handler+0x404>
   83050:	b0000000 	adrp	x0, 84000 <list_del+0x40>
   83054:	9126c001 	add	x1, x0, #0x9b0
   83058:	f9401be0 	ldr	x0, [sp, #48]
   8305c:	97fffc34 	bl	8212c <strcmp>
   83060:	7100001f 	cmp	w0, #0x0
   83064:	54000061 	b.ne	83070 <cmd_handler+0x164>  // b.any
   83068:	97fffd62 	bl	825f0 <cpio_ls>
   8306c:	140000a9 	b	83310 <cmd_handler+0x404>
   83070:	b0000000 	adrp	x0, 84000 <list_del+0x40>
   83074:	9126e001 	add	x1, x0, #0x9b8
   83078:	f9401be0 	ldr	x0, [sp, #48]
   8307c:	97fffc2c 	bl	8212c <strcmp>
   83080:	7100001f 	cmp	w0, #0x0
   83084:	540000c1 	b.ne	8309c <cmd_handler+0x190>  // b.any
   83088:	52800401 	mov	w1, #0x20                  	// #32
   8308c:	d2800000 	mov	x0, #0x0                   	// #0
   83090:	97fffc74 	bl	82260 <strtok>
   83094:	97fffd2d 	bl	82548 <cpio_cat>
   83098:	1400009e 	b	83310 <cmd_handler+0x404>
   8309c:	b0000000 	adrp	x0, 84000 <list_del+0x40>
   830a0:	91270001 	add	x1, x0, #0x9c0
   830a4:	f9401be0 	ldr	x0, [sp, #48]
   830a8:	97fffc21 	bl	8212c <strcmp>
   830ac:	7100001f 	cmp	w0, #0x0
   830b0:	54000081 	b.ne	830c0 <cmd_handler+0x1b4>  // b.any
   830b4:	52800000 	mov	w0, #0x0                   	// #0
   830b8:	97fff948 	bl	815d8 <dtb_parse>
   830bc:	14000095 	b	83310 <cmd_handler+0x404>
   830c0:	b0000000 	adrp	x0, 84000 <list_del+0x40>
   830c4:	91272001 	add	x1, x0, #0x9c8
   830c8:	f9401be0 	ldr	x0, [sp, #48]
   830cc:	97fffc18 	bl	8212c <strcmp>
   830d0:	7100001f 	cmp	w0, #0x0
   830d4:	540000c1 	b.ne	830ec <cmd_handler+0x1e0>  // b.any
   830d8:	52800401 	mov	w1, #0x20                  	// #32
   830dc:	d2800000 	mov	x0, #0x0                   	// #0
   830e0:	97fffc60 	bl	82260 <strtok>
   830e4:	97ffff38 	bl	82dc4 <alloc_test>
   830e8:	1400008a 	b	83310 <cmd_handler+0x404>
   830ec:	b0000000 	adrp	x0, 84000 <list_del+0x40>
   830f0:	91274001 	add	x1, x0, #0x9d0
   830f4:	f9401be0 	ldr	x0, [sp, #48]
   830f8:	97fffc0d 	bl	8212c <strcmp>
   830fc:	7100001f 	cmp	w0, #0x0
   83100:	54000121 	b.ne	83124 <cmd_handler+0x218>  // b.any
   83104:	910043e0 	add	x0, sp, #0x10
   83108:	aa0003e1 	mov	x1, x0
   8310c:	b0000000 	adrp	x0, 84000 <list_del+0x40>
   83110:	91276000 	add	x0, x0, #0x9d8
   83114:	97fffd52 	bl	8265c <cpio_get_file_info>
   83118:	910043e0 	add	x0, sp, #0x10
   8311c:	97fffe77 	bl	82af8 <jump2usr_prog>
   83120:	1400007c 	b	83310 <cmd_handler+0x404>
   83124:	b0000000 	adrp	x0, 84000 <list_del+0x40>
   83128:	9127a001 	add	x1, x0, #0x9e8
   8312c:	f9401be0 	ldr	x0, [sp, #48]
   83130:	97fffbff 	bl	8212c <strcmp>
   83134:	7100001f 	cmp	w0, #0x0
   83138:	54000301 	b.ne	83198 <cmd_handler+0x28c>  // b.any
   8313c:	52800401 	mov	w1, #0x20                  	// #32
   83140:	d2800000 	mov	x0, #0x0                   	// #0
   83144:	97fffc47 	bl	82260 <strtok>
   83148:	97fff7ed 	bl	810fc <atoi>
   8314c:	b9002fe0 	str	w0, [sp, #44]
   83150:	b9402fe0 	ldr	w0, [sp, #44]
   83154:	940001a0 	bl	837d4 <buddy_alloc>
   83158:	93407c02 	sxtw	x2, w0
   8315c:	b0000000 	adrp	x0, 84000 <list_del+0x40>
   83160:	913ac000 	add	x0, x0, #0xeb0
   83164:	b9400001 	ldr	w1, [x0]
   83168:	b0000000 	adrp	x0, 84000 <list_del+0x40>
   8316c:	f9474400 	ldr	x0, [x0, #3720]
   83170:	93407c21 	sxtw	x1, w1
   83174:	f8217802 	str	x2, [x0, x1, lsl #3]
   83178:	b0000000 	adrp	x0, 84000 <list_del+0x40>
   8317c:	913ac000 	add	x0, x0, #0xeb0
   83180:	b9400000 	ldr	w0, [x0]
   83184:	11000401 	add	w1, w0, #0x1
   83188:	b0000000 	adrp	x0, 84000 <list_del+0x40>
   8318c:	913ac000 	add	x0, x0, #0xeb0
   83190:	b9000001 	str	w1, [x0]
   83194:	1400005f 	b	83310 <cmd_handler+0x404>
   83198:	b0000000 	adrp	x0, 84000 <list_del+0x40>
   8319c:	9127c001 	add	x1, x0, #0x9f0
   831a0:	f9401be0 	ldr	x0, [sp, #48]
   831a4:	97fffbe2 	bl	8212c <strcmp>
   831a8:	7100001f 	cmp	w0, #0x0
   831ac:	540001c1 	b.ne	831e4 <cmd_handler+0x2d8>  // b.any
   831b0:	b0000000 	adrp	x0, 84000 <list_del+0x40>
   831b4:	913ad000 	add	x0, x0, #0xeb4
   831b8:	b9400000 	ldr	w0, [x0]
   831bc:	11000402 	add	w2, w0, #0x1
   831c0:	b0000001 	adrp	x1, 84000 <list_del+0x40>
   831c4:	913ad021 	add	x1, x1, #0xeb4
   831c8:	b9000022 	str	w2, [x1]
   831cc:	b0000001 	adrp	x1, 84000 <list_del+0x40>
   831d0:	f9474421 	ldr	x1, [x1, #3720]
   831d4:	93407c00 	sxtw	x0, w0
   831d8:	f8607820 	ldr	x0, [x1, x0, lsl #3]
   831dc:	9400020b 	bl	83a08 <buddy_free>
   831e0:	1400004c 	b	83310 <cmd_handler+0x404>
   831e4:	b0000000 	adrp	x0, 84000 <list_del+0x40>
   831e8:	9127e001 	add	x1, x0, #0x9f8
   831ec:	f9401be0 	ldr	x0, [sp, #48]
   831f0:	97fffbcf 	bl	8212c <strcmp>
   831f4:	7100001f 	cmp	w0, #0x0
   831f8:	540002c1 	b.ne	83250 <cmd_handler+0x344>  // b.any
   831fc:	52800401 	mov	w1, #0x20                  	// #32
   83200:	d2800000 	mov	x0, #0x0                   	// #0
   83204:	97fffc17 	bl	82260 <strtok>
   83208:	97fff7bd 	bl	810fc <atoi>
   8320c:	b9002be0 	str	w0, [sp, #40]
   83210:	b9402be0 	ldr	w0, [sp, #40]
   83214:	940003d8 	bl	84174 <mm_alloc>
   83218:	93407c03 	sxtw	x3, w0
   8321c:	b0000000 	adrp	x0, 84000 <list_del+0x40>
   83220:	913ae000 	add	x0, x0, #0xeb8
   83224:	b9400000 	ldr	w0, [x0]
   83228:	11000402 	add	w2, w0, #0x1
   8322c:	b0000001 	adrp	x1, 84000 <list_del+0x40>
   83230:	913ae021 	add	x1, x1, #0xeb8
   83234:	b9000022 	str	w2, [x1]
   83238:	aa0303e2 	mov	x2, x3
   8323c:	b0000001 	adrp	x1, 84000 <list_del+0x40>
   83240:	f9470021 	ldr	x1, [x1, #3584]
   83244:	93407c00 	sxtw	x0, w0
   83248:	f8207822 	str	x2, [x1, x0, lsl #3]
   8324c:	14000031 	b	83310 <cmd_handler+0x404>
   83250:	b0000000 	adrp	x0, 84000 <list_del+0x40>
   83254:	91280001 	add	x1, x0, #0xa00
   83258:	f9401be0 	ldr	x0, [sp, #48]
   8325c:	97fffbb4 	bl	8212c <strcmp>
   83260:	7100001f 	cmp	w0, #0x0
   83264:	540001c1 	b.ne	8329c <cmd_handler+0x390>  // b.any
   83268:	b0000000 	adrp	x0, 84000 <list_del+0x40>
   8326c:	913af000 	add	x0, x0, #0xebc
   83270:	b9400000 	ldr	w0, [x0]
   83274:	11000402 	add	w2, w0, #0x1
   83278:	b0000001 	adrp	x1, 84000 <list_del+0x40>
   8327c:	913af021 	add	x1, x1, #0xebc
   83280:	b9000022 	str	w2, [x1]
   83284:	b0000001 	adrp	x1, 84000 <list_del+0x40>
   83288:	f9470021 	ldr	x1, [x1, #3584]
   8328c:	93407c00 	sxtw	x0, w0
   83290:	f8607820 	ldr	x0, [x1, x0, lsl #3]
   83294:	9400042a 	bl	8433c <mm_free>
   83298:	1400001e 	b	83310 <cmd_handler+0x404>
   8329c:	b0000000 	adrp	x0, 84000 <list_del+0x40>
   832a0:	91282001 	add	x1, x0, #0xa08
   832a4:	f9401be0 	ldr	x0, [sp, #48]
   832a8:	97fffba1 	bl	8212c <strcmp>
   832ac:	7100001f 	cmp	w0, #0x0
   832b0:	54000241 	b.ne	832f8 <cmd_handler+0x3ec>  // b.any
   832b4:	b0000000 	adrp	x0, 84000 <list_del+0x40>
   832b8:	913ac000 	add	x0, x0, #0xeb0
   832bc:	b9400001 	ldr	w1, [x0]
   832c0:	b0000000 	adrp	x0, 84000 <list_del+0x40>
   832c4:	91222002 	add	x2, x0, #0x888
   832c8:	b0000000 	adrp	x0, 84000 <list_del+0x40>
   832cc:	91284000 	add	x0, x0, #0xa10
   832d0:	97fffa96 	bl	81d28 <uart_sdec>
   832d4:	b0000000 	adrp	x0, 84000 <list_del+0x40>
   832d8:	913ad000 	add	x0, x0, #0xeb4
   832dc:	b9400001 	ldr	w1, [x0]
   832e0:	b0000000 	adrp	x0, 84000 <list_del+0x40>
   832e4:	91222002 	add	x2, x0, #0x888
   832e8:	b0000000 	adrp	x0, 84000 <list_del+0x40>
   832ec:	91288000 	add	x0, x0, #0xa20
   832f0:	97fffa8e 	bl	81d28 <uart_sdec>
   832f4:	14000007 	b	83310 <cmd_handler+0x404>
   832f8:	f9401be0 	ldr	x0, [sp, #48]
   832fc:	f100001f 	cmp	x0, #0x0
   83300:	54000080 	b.eq	83310 <cmd_handler+0x404>  // b.none
   83304:	b0000000 	adrp	x0, 84000 <list_del+0x40>
   83308:	9128c000 	add	x0, x0, #0xa30
   8330c:	97fff9da 	bl	81a74 <uart_puts>
   83310:	b9003fff 	str	wzr, [sp, #60]
   83314:	14000008 	b	83334 <cmd_handler+0x428>
   83318:	b0000000 	adrp	x0, 84000 <list_del+0x40>
   8331c:	f9471c01 	ldr	x1, [x0, #3640]
   83320:	b9803fe0 	ldrsw	x0, [sp, #60]
   83324:	3820683f 	strb	wzr, [x1, x0]
   83328:	b9403fe0 	ldr	w0, [sp, #60]
   8332c:	11000400 	add	w0, w0, #0x1
   83330:	b9003fe0 	str	w0, [sp, #60]
   83334:	b9403fe0 	ldr	w0, [sp, #60]
   83338:	7100fc1f 	cmp	w0, #0x3f
   8333c:	54fffeed 	b.le	83318 <cmd_handler+0x40c>
   83340:	d503201f 	nop
   83344:	a8c47bfd 	ldp	x29, x30, [sp], #64
   83348:	d65f03c0 	ret

000000000008334c <init_buddy>:
   8334c:	a9be7bfd 	stp	x29, x30, [sp, #-32]!
   83350:	910003fd 	mov	x29, sp
   83354:	d2a003c0 	mov	x0, #0x1e0000              	// #1966080
   83358:	97fff74e 	bl	81090 <simple_alloc>
   8335c:	93407c00 	sxtw	x0, w0
   83360:	aa0003e1 	mov	x1, x0
   83364:	b0000000 	adrp	x0, 84000 <list_del+0x40>
   83368:	f9470c00 	ldr	x0, [x0, #3608]
   8336c:	f9000001 	str	x1, [x0]
   83370:	b9001fff 	str	wzr, [sp, #28]
   83374:	14000012 	b	833bc <init_buddy+0x70>
   83378:	b0000000 	adrp	x0, 84000 <list_del+0x40>
   8337c:	f9470c00 	ldr	x0, [x0, #3608]
   83380:	f9400001 	ldr	x1, [x0]
   83384:	b9801fe0 	ldrsw	x0, [sp, #28]
   83388:	d37df000 	lsl	x0, x0, #3
   8338c:	8b000020 	add	x0, x1, x0
   83390:	b900001f 	str	wzr, [x0]
   83394:	b0000000 	adrp	x0, 84000 <list_del+0x40>
   83398:	f9470c00 	ldr	x0, [x0, #3608]
   8339c:	f9400001 	ldr	x1, [x0]
   833a0:	b9801fe0 	ldrsw	x0, [sp, #28]
   833a4:	d37df000 	lsl	x0, x0, #3
   833a8:	8b000020 	add	x0, x1, x0
   833ac:	b900041f 	str	wzr, [x0, #4]
   833b0:	b9401fe0 	ldr	w0, [sp, #28]
   833b4:	11000400 	add	w0, w0, #0x1
   833b8:	b9001fe0 	str	w0, [sp, #28]
   833bc:	b9401fe1 	ldr	w1, [sp, #28]
   833c0:	5297ffe0 	mov	w0, #0xbfff                	// #49151
   833c4:	72a00060 	movk	w0, #0x3, lsl #16
   833c8:	6b00003f 	cmp	w1, w0
   833cc:	54fffd6d 	b.le	83378 <init_buddy+0x2c>
   833d0:	d503201f 	nop
   833d4:	a8c27bfd 	ldp	x29, x30, [sp], #32
   833d8:	d65f03c0 	ret

00000000000833dc <build_buddy>:
   833dc:	a9bd7bfd 	stp	x29, x30, [sp, #-48]!
   833e0:	910003fd 	mov	x29, sp
   833e4:	b9002fff 	str	wzr, [sp, #44]
   833e8:	14000015 	b	8343c <build_buddy+0x60>
   833ec:	b0000000 	adrp	x0, 84000 <list_del+0x40>
   833f0:	f9470c00 	ldr	x0, [x0, #3608]
   833f4:	f9400001 	ldr	x1, [x0]
   833f8:	b9802fe0 	ldrsw	x0, [sp, #44]
   833fc:	d37df000 	lsl	x0, x0, #3
   83400:	8b000020 	add	x0, x1, x0
   83404:	b9400000 	ldr	w0, [x0]
   83408:	7100001f 	cmp	w0, #0x0
   8340c:	54000121 	b.ne	83430 <build_buddy+0x54>  // b.any
   83410:	b9402fe0 	ldr	w0, [sp, #44]
   83414:	53144c00 	lsl	w0, w0, #12
   83418:	93407c00 	sxtw	x0, w0
   8341c:	f9000fe0 	str	x0, [sp, #24]
   83420:	f9400fe0 	ldr	x0, [sp, #24]
   83424:	f900001f 	str	xzr, [x0]
   83428:	f9400fe0 	ldr	x0, [sp, #24]
   8342c:	f900041f 	str	xzr, [x0, #8]
   83430:	b9402fe0 	ldr	w0, [sp, #44]
   83434:	11000400 	add	w0, w0, #0x1
   83438:	b9002fe0 	str	w0, [sp, #44]
   8343c:	b9402fe1 	ldr	w1, [sp, #44]
   83440:	5297ffe0 	mov	w0, #0xbfff                	// #49151
   83444:	72a00060 	movk	w0, #0x3, lsl #16
   83448:	6b00003f 	cmp	w1, w0
   8344c:	54fffd0d 	b.le	833ec <build_buddy+0x10>
   83450:	b9002bff 	str	wzr, [sp, #40]
   83454:	14000015 	b	834a8 <build_buddy+0xcc>
   83458:	b90027ff 	str	wzr, [sp, #36]
   8345c:	1400000b 	b	83488 <build_buddy+0xac>
   83460:	52800002 	mov	w2, #0x0                   	// #0
   83464:	b9402be1 	ldr	w1, [sp, #40]
   83468:	b94027e0 	ldr	w0, [sp, #36]
   8346c:	94000015 	bl	834c0 <merge_buddy>
   83470:	b9402be0 	ldr	w0, [sp, #40]
   83474:	52800021 	mov	w1, #0x1                   	// #1
   83478:	1ac02020 	lsl	w0, w1, w0
   8347c:	b94027e1 	ldr	w1, [sp, #36]
   83480:	0b000020 	add	w0, w1, w0
   83484:	b90027e0 	str	w0, [sp, #36]
   83488:	b94027e1 	ldr	w1, [sp, #36]
   8348c:	5297ffe0 	mov	w0, #0xbfff                	// #49151
   83490:	72a00060 	movk	w0, #0x3, lsl #16
   83494:	6b00003f 	cmp	w1, w0
   83498:	54fffe4d 	b.le	83460 <build_buddy+0x84>
   8349c:	b9402be0 	ldr	w0, [sp, #40]
   834a0:	11000400 	add	w0, w0, #0x1
   834a4:	b9002be0 	str	w0, [sp, #40]
   834a8:	b9402be0 	ldr	w0, [sp, #40]
   834ac:	7100381f 	cmp	w0, #0xe
   834b0:	54fffd4d 	b.le	83458 <build_buddy+0x7c>
   834b4:	d503201f 	nop
   834b8:	a8c37bfd 	ldp	x29, x30, [sp], #48
   834bc:	d65f03c0 	ret

00000000000834c0 <merge_buddy>:
   834c0:	a9bc7bfd 	stp	x29, x30, [sp, #-64]!
   834c4:	910003fd 	mov	x29, sp
   834c8:	b9001fe0 	str	w0, [sp, #28]
   834cc:	b9001be1 	str	w1, [sp, #24]
   834d0:	b90017e2 	str	w2, [sp, #20]
   834d4:	b9401be1 	ldr	w1, [sp, #24]
   834d8:	b9401fe0 	ldr	w0, [sp, #28]
   834dc:	94000085 	bl	836f0 <sibling>
   834e0:	b9003fe0 	str	w0, [sp, #60]
   834e4:	b9401fe1 	ldr	w1, [sp, #28]
   834e8:	b9403fe0 	ldr	w0, [sp, #60]
   834ec:	6b00003f 	cmp	w1, w0
   834f0:	1a9f27e0 	cset	w0, cc  // cc = lo, ul, last
   834f4:	12001c00 	and	w0, w0, #0xff
   834f8:	b90027e0 	str	w0, [sp, #36]
   834fc:	b0000000 	adrp	x0, 84000 <list_del+0x40>
   83500:	f9470c00 	ldr	x0, [x0, #3608]
   83504:	f9400001 	ldr	x1, [x0]
   83508:	b9401fe0 	ldr	w0, [sp, #28]
   8350c:	d37df000 	lsl	x0, x0, #3
   83510:	8b000020 	add	x0, x1, x0
   83514:	f9001be0 	str	x0, [sp, #48]
   83518:	b0000000 	adrp	x0, 84000 <list_del+0x40>
   8351c:	f9470c00 	ldr	x0, [x0, #3608]
   83520:	f9400001 	ldr	x1, [x0]
   83524:	b9403fe0 	ldr	w0, [sp, #60]
   83528:	d37df000 	lsl	x0, x0, #3
   8352c:	8b000020 	add	x0, x1, x0
   83530:	f90017e0 	str	x0, [sp, #40]
   83534:	f9401be0 	ldr	x0, [sp, #48]
   83538:	b9400000 	ldr	w0, [x0]
   8353c:	7100001f 	cmp	w0, #0x0
   83540:	540001e1 	b.ne	8357c <merge_buddy+0xbc>  // b.any
   83544:	f94017e0 	ldr	x0, [sp, #40]
   83548:	b9400000 	ldr	w0, [x0]
   8354c:	7100001f 	cmp	w0, #0x0
   83550:	54000161 	b.ne	8357c <merge_buddy+0xbc>  // b.any
   83554:	b9401fe1 	ldr	w1, [sp, #28]
   83558:	5297ffe0 	mov	w0, #0xbfff                	// #49151
   8355c:	72a00060 	movk	w0, #0x3, lsl #16
   83560:	6b00003f 	cmp	w1, w0
   83564:	540000c8 	b.hi	8357c <merge_buddy+0xbc>  // b.pmore
   83568:	b9403fe1 	ldr	w1, [sp, #60]
   8356c:	5297ffe0 	mov	w0, #0xbfff                	// #49151
   83570:	72a00060 	movk	w0, #0x3, lsl #16
   83574:	6b00003f 	cmp	w1, w0
   83578:	54000069 	b.ls	83584 <merge_buddy+0xc4>  // b.plast
   8357c:	52800000 	mov	w0, #0x0                   	// #0
   83580:	1400005a 	b	836e8 <merge_buddy+0x228>
   83584:	f9401be0 	ldr	x0, [sp, #48]
   83588:	b9400401 	ldr	w1, [x0, #4]
   8358c:	f94017e0 	ldr	x0, [sp, #40]
   83590:	b9400400 	ldr	w0, [x0, #4]
   83594:	6b00003f 	cmp	w1, w0
   83598:	54000a61 	b.ne	836e4 <merge_buddy+0x224>  // b.any
   8359c:	b9401fe1 	ldr	w1, [sp, #28]
   835a0:	b9403fe0 	ldr	w0, [sp, #60]
   835a4:	6b00003f 	cmp	w1, w0
   835a8:	540009e0 	b.eq	836e4 <merge_buddy+0x224>  // b.none
   835ac:	b94027e0 	ldr	w0, [sp, #36]
   835b0:	7100001f 	cmp	w0, #0x0
   835b4:	54000201 	b.ne	835f4 <merge_buddy+0x134>  // b.any
   835b8:	b9403fe0 	ldr	w0, [sp, #60]
   835bc:	b90023e0 	str	w0, [sp, #32]
   835c0:	b9401fe0 	ldr	w0, [sp, #28]
   835c4:	b9003fe0 	str	w0, [sp, #60]
   835c8:	b94023e0 	ldr	w0, [sp, #32]
   835cc:	b9001fe0 	str	w0, [sp, #28]
   835d0:	f9401be0 	ldr	x0, [sp, #48]
   835d4:	b90023e0 	str	w0, [sp, #32]
   835d8:	f94017e0 	ldr	x0, [sp, #40]
   835dc:	f9001be0 	str	x0, [sp, #48]
   835e0:	b94023e0 	ldr	w0, [sp, #32]
   835e4:	f90017e0 	str	x0, [sp, #40]
   835e8:	b0000000 	adrp	x0, 84000 <list_del+0x40>
   835ec:	91292000 	add	x0, x0, #0xa48
   835f0:	97fff921 	bl	81a74 <uart_puts>
   835f4:	b9401fe0 	ldr	w0, [sp, #28]
   835f8:	53144c00 	lsl	w0, w0, #12
   835fc:	2a0003e0 	mov	w0, w0
   83600:	94000270 	bl	83fc0 <list_del>
   83604:	b9403fe0 	ldr	w0, [sp, #60]
   83608:	53144c00 	lsl	w0, w0, #12
   8360c:	2a0003e0 	mov	w0, w0
   83610:	9400026c 	bl	83fc0 <list_del>
   83614:	f9401be0 	ldr	x0, [sp, #48]
   83618:	b900001f 	str	wzr, [x0]
   8361c:	f94017e0 	ldr	x0, [sp, #40]
   83620:	52800021 	mov	w1, #0x1                   	// #1
   83624:	b9000001 	str	w1, [x0]
   83628:	f9401be0 	ldr	x0, [sp, #48]
   8362c:	b9400400 	ldr	w0, [x0, #4]
   83630:	11000401 	add	w1, w0, #0x1
   83634:	f9401be0 	ldr	x0, [sp, #48]
   83638:	b9000401 	str	w1, [x0, #4]
   8363c:	b9401fe0 	ldr	w0, [sp, #28]
   83640:	53144c00 	lsl	w0, w0, #12
   83644:	2a0003e0 	mov	w0, w0
   83648:	aa0003e2 	mov	x2, x0
   8364c:	f9401be0 	ldr	x0, [sp, #48]
   83650:	b9400400 	ldr	w0, [x0, #4]
   83654:	2a0003e0 	mov	w0, w0
   83658:	d37cec01 	lsl	x1, x0, #4
   8365c:	b0000000 	adrp	x0, 84000 <list_del+0x40>
   83660:	f9473c00 	ldr	x0, [x0, #3704]
   83664:	8b000020 	add	x0, x1, x0
   83668:	aa0003e1 	mov	x1, x0
   8366c:	aa0203e0 	mov	x0, x2
   83670:	9400023f 	bl	83f6c <list_add_tail>
   83674:	b94017e0 	ldr	w0, [sp, #20]
   83678:	7100001f 	cmp	w0, #0x0
   8367c:	54000340 	b.eq	836e4 <merge_buddy+0x224>  // b.none
   83680:	b0000000 	adrp	x0, 84000 <list_del+0x40>
   83684:	91294000 	add	x0, x0, #0xa50
   83688:	97fff8fb 	bl	81a74 <uart_puts>
   8368c:	b9401fe0 	ldr	w0, [sp, #28]
   83690:	97fff970 	bl	81c50 <uart_dec>
   83694:	b0000000 	adrp	x0, 84000 <list_del+0x40>
   83698:	91296000 	add	x0, x0, #0xa58
   8369c:	97fff8f6 	bl	81a74 <uart_puts>
   836a0:	b9403fe0 	ldr	w0, [sp, #60]
   836a4:	97fff96b 	bl	81c50 <uart_dec>
   836a8:	b0000000 	adrp	x0, 84000 <list_del+0x40>
   836ac:	91298000 	add	x0, x0, #0xa60
   836b0:	97fff8f1 	bl	81a74 <uart_puts>
   836b4:	f94017e0 	ldr	x0, [sp, #40]
   836b8:	b9400400 	ldr	w0, [x0, #4]
   836bc:	97fff965 	bl	81c50 <uart_dec>
   836c0:	b0000000 	adrp	x0, 84000 <list_del+0x40>
   836c4:	9129c000 	add	x0, x0, #0xa70
   836c8:	97fff8eb 	bl	81a74 <uart_puts>
   836cc:	f9401be0 	ldr	x0, [sp, #48]
   836d0:	b9400400 	ldr	w0, [x0, #4]
   836d4:	97fff95f 	bl	81c50 <uart_dec>
   836d8:	b0000000 	adrp	x0, 84000 <list_del+0x40>
   836dc:	9129e000 	add	x0, x0, #0xa78
   836e0:	97fff8e5 	bl	81a74 <uart_puts>
   836e4:	52800020 	mov	w0, #0x1                   	// #1
   836e8:	a8c47bfd 	ldp	x29, x30, [sp], #64
   836ec:	d65f03c0 	ret

00000000000836f0 <sibling>:
   836f0:	d10083ff 	sub	sp, sp, #0x20
   836f4:	b9000fe0 	str	w0, [sp, #12]
   836f8:	b9000be1 	str	w1, [sp, #8]
   836fc:	b9400be0 	ldr	w0, [sp, #8]
   83700:	52800021 	mov	w1, #0x1                   	// #1
   83704:	1ac02020 	lsl	w0, w1, w0
   83708:	2a0003e1 	mov	w1, w0
   8370c:	b9400fe0 	ldr	w0, [sp, #12]
   83710:	4a010000 	eor	w0, w0, w1
   83714:	b9001fe0 	str	w0, [sp, #28]
   83718:	b9401fe0 	ldr	w0, [sp, #28]
   8371c:	910083ff 	add	sp, sp, #0x20
   83720:	d65f03c0 	ret

0000000000083724 <reserve_memory>:
   83724:	a9bd7bfd 	stp	x29, x30, [sp, #-48]!
   83728:	910003fd 	mov	x29, sp
   8372c:	b9001fe0 	str	w0, [sp, #28]
   83730:	b9001be1 	str	w1, [sp, #24]
   83734:	b9401fe0 	ldr	w0, [sp, #28]
   83738:	530c7c00 	lsr	w0, w0, #12
   8373c:	b9002be0 	str	w0, [sp, #40]
   83740:	b9401be0 	ldr	w0, [sp, #24]
   83744:	530c7c00 	lsr	w0, w0, #12
   83748:	b90027e0 	str	w0, [sp, #36]
   8374c:	b9402be0 	ldr	w0, [sp, #40]
   83750:	b9002fe0 	str	w0, [sp, #44]
   83754:	1400000c 	b	83784 <reserve_memory+0x60>
   83758:	b0000000 	adrp	x0, 84000 <list_del+0x40>
   8375c:	f9470c00 	ldr	x0, [x0, #3608]
   83760:	f9400001 	ldr	x1, [x0]
   83764:	b9802fe0 	ldrsw	x0, [sp, #44]
   83768:	d37df000 	lsl	x0, x0, #3
   8376c:	8b000020 	add	x0, x1, x0
   83770:	52800061 	mov	w1, #0x3                   	// #3
   83774:	b9000001 	str	w1, [x0]
   83778:	b9402fe0 	ldr	w0, [sp, #44]
   8377c:	11000400 	add	w0, w0, #0x1
   83780:	b9002fe0 	str	w0, [sp, #44]
   83784:	b9402fe0 	ldr	w0, [sp, #44]
   83788:	b94027e1 	ldr	w1, [sp, #36]
   8378c:	6b00003f 	cmp	w1, w0
   83790:	54fffe42 	b.cs	83758 <reserve_memory+0x34>  // b.hs, b.nlast
   83794:	b0000000 	adrp	x0, 84000 <list_del+0x40>
   83798:	912a0000 	add	x0, x0, #0xa80
   8379c:	97fff8b6 	bl	81a74 <uart_puts>
   837a0:	b9401fe0 	ldr	w0, [sp, #28]
   837a4:	97fff90c 	bl	81bd4 <uart_hex>
   837a8:	b0000000 	adrp	x0, 84000 <list_del+0x40>
   837ac:	912a8000 	add	x0, x0, #0xaa0
   837b0:	97fff8b1 	bl	81a74 <uart_puts>
   837b4:	b9401be0 	ldr	w0, [sp, #24]
   837b8:	97fff907 	bl	81bd4 <uart_hex>
   837bc:	b0000000 	adrp	x0, 84000 <list_del+0x40>
   837c0:	912b0000 	add	x0, x0, #0xac0
   837c4:	97fff8ac 	bl	81a74 <uart_puts>
   837c8:	d503201f 	nop
   837cc:	a8c37bfd 	ldp	x29, x30, [sp], #48
   837d0:	d65f03c0 	ret

00000000000837d4 <buddy_alloc>:
   837d4:	a9bc7bfd 	stp	x29, x30, [sp, #-64]!
   837d8:	910003fd 	mov	x29, sp
   837dc:	b9001fe0 	str	w0, [sp, #28]
   837e0:	b0000000 	adrp	x0, 84000 <list_del+0x40>
   837e4:	912b2002 	add	x2, x0, #0xac8
   837e8:	b9401fe1 	ldr	w1, [sp, #28]
   837ec:	b0000000 	adrp	x0, 84000 <list_del+0x40>
   837f0:	912b4000 	add	x0, x0, #0xad0
   837f4:	97fff94d 	bl	81d28 <uart_sdec>
   837f8:	b9401fe0 	ldr	w0, [sp, #28]
   837fc:	b9003fe0 	str	w0, [sp, #60]
   83800:	1400000c 	b	83830 <buddy_alloc+0x5c>
   83804:	b9803fe0 	ldrsw	x0, [sp, #60]
   83808:	d37cec01 	lsl	x1, x0, #4
   8380c:	b0000000 	adrp	x0, 84000 <list_del+0x40>
   83810:	f9473c00 	ldr	x0, [x0, #3704]
   83814:	8b000020 	add	x0, x1, x0
   83818:	940001cb 	bl	83f44 <list_empty>
   8381c:	7100001f 	cmp	w0, #0x0
   83820:	54000100 	b.eq	83840 <buddy_alloc+0x6c>  // b.none
   83824:	b9403fe0 	ldr	w0, [sp, #60]
   83828:	11000400 	add	w0, w0, #0x1
   8382c:	b9003fe0 	str	w0, [sp, #60]
   83830:	b9403fe0 	ldr	w0, [sp, #60]
   83834:	71003c1f 	cmp	w0, #0xf
   83838:	54fffe6d 	b.le	83804 <buddy_alloc+0x30>
   8383c:	14000002 	b	83844 <buddy_alloc+0x70>
   83840:	d503201f 	nop
   83844:	b9403fe0 	ldr	w0, [sp, #60]
   83848:	7100401f 	cmp	w0, #0x10
   8384c:	54000101 	b.ne	8386c <buddy_alloc+0x98>  // b.any
   83850:	b0000000 	adrp	x0, 84000 <list_del+0x40>
   83854:	912b2002 	add	x2, x0, #0xac8
   83858:	b9401fe1 	ldr	w1, [sp, #28]
   8385c:	b0000000 	adrp	x0, 84000 <list_del+0x40>
   83860:	912bc000 	add	x0, x0, #0xaf0
   83864:	97fff931 	bl	81d28 <uart_sdec>
   83868:	97fff673 	bl	81234 <exit>
   8386c:	b9803fe0 	ldrsw	x0, [sp, #60]
   83870:	d37cec01 	lsl	x1, x0, #4
   83874:	b0000000 	adrp	x0, 84000 <list_del+0x40>
   83878:	f9473c00 	ldr	x0, [x0, #3704]
   8387c:	8b000020 	add	x0, x1, x0
   83880:	940001e7 	bl	8401c <list_pop>
   83884:	f9001be0 	str	x0, [sp, #48]
   83888:	f9401be0 	ldr	x0, [sp, #48]
   8388c:	530c7c00 	lsr	w0, w0, #12
   83890:	b9002fe0 	str	w0, [sp, #44]
   83894:	b9403fe0 	ldr	w0, [sp, #60]
   83898:	b9003be0 	str	w0, [sp, #56]
   8389c:	b0000000 	adrp	x0, 84000 <list_del+0x40>
   838a0:	912b2002 	add	x2, x0, #0xac8
   838a4:	b9403be1 	ldr	w1, [sp, #56]
   838a8:	b0000000 	adrp	x0, 84000 <list_del+0x40>
   838ac:	912c2000 	add	x0, x0, #0xb08
   838b0:	97fff91e 	bl	81d28 <uart_sdec>
   838b4:	14000029 	b	83958 <buddy_alloc+0x184>
   838b8:	b9403be0 	ldr	w0, [sp, #56]
   838bc:	51000400 	sub	w0, w0, #0x1
   838c0:	b9003be0 	str	w0, [sp, #56]
   838c4:	b9403be1 	ldr	w1, [sp, #56]
   838c8:	b9402fe0 	ldr	w0, [sp, #44]
   838cc:	97ffff89 	bl	836f0 <sibling>
   838d0:	b9002be0 	str	w0, [sp, #40]
   838d4:	b0000000 	adrp	x0, 84000 <list_del+0x40>
   838d8:	f9470c00 	ldr	x0, [x0, #3608]
   838dc:	f9400001 	ldr	x1, [x0]
   838e0:	b9402be0 	ldr	w0, [sp, #40]
   838e4:	d37df000 	lsl	x0, x0, #3
   838e8:	8b000020 	add	x0, x1, x0
   838ec:	b900001f 	str	wzr, [x0]
   838f0:	b0000000 	adrp	x0, 84000 <list_del+0x40>
   838f4:	f9470c00 	ldr	x0, [x0, #3608]
   838f8:	f9400001 	ldr	x1, [x0]
   838fc:	b9402be0 	ldr	w0, [sp, #40]
   83900:	d37df000 	lsl	x0, x0, #3
   83904:	8b000020 	add	x0, x1, x0
   83908:	b9403be1 	ldr	w1, [sp, #56]
   8390c:	b9000401 	str	w1, [x0, #4]
   83910:	b9402be0 	ldr	w0, [sp, #40]
   83914:	53144c00 	lsl	w0, w0, #12
   83918:	2a0003e0 	mov	w0, w0
   8391c:	aa0003e2 	mov	x2, x0
   83920:	b9403be0 	ldr	w0, [sp, #56]
   83924:	d37cec01 	lsl	x1, x0, #4
   83928:	b0000000 	adrp	x0, 84000 <list_del+0x40>
   8392c:	f9473c00 	ldr	x0, [x0, #3704]
   83930:	8b000020 	add	x0, x1, x0
   83934:	aa0003e1 	mov	x1, x0
   83938:	aa0203e0 	mov	x0, x2
   8393c:	9400018c 	bl	83f6c <list_add_tail>
   83940:	b0000000 	adrp	x0, 84000 <list_del+0x40>
   83944:	912b2002 	add	x2, x0, #0xac8
   83948:	b9403be1 	ldr	w1, [sp, #56]
   8394c:	b0000000 	adrp	x0, 84000 <list_del+0x40>
   83950:	912c6000 	add	x0, x0, #0xb18
   83954:	97fff8f5 	bl	81d28 <uart_sdec>
   83958:	b9403be1 	ldr	w1, [sp, #56]
   8395c:	b9401fe0 	ldr	w0, [sp, #28]
   83960:	6b00003f 	cmp	w1, w0
   83964:	54fffaa8 	b.hi	838b8 <buddy_alloc+0xe4>  // b.pmore
   83968:	b9403be1 	ldr	w1, [sp, #56]
   8396c:	b9401fe0 	ldr	w0, [sp, #28]
   83970:	6b00003f 	cmp	w1, w0
   83974:	540000a0 	b.eq	83988 <buddy_alloc+0x1b4>  // b.none
   83978:	b0000000 	adrp	x0, 84000 <list_del+0x40>
   8397c:	912cc000 	add	x0, x0, #0xb30
   83980:	97fff83d 	bl	81a74 <uart_puts>
   83984:	97fff62c 	bl	81234 <exit>
   83988:	b0000000 	adrp	x0, 84000 <list_del+0x40>
   8398c:	f9470c00 	ldr	x0, [x0, #3608]
   83990:	f9400001 	ldr	x1, [x0]
   83994:	b9402fe0 	ldr	w0, [sp, #44]
   83998:	d37df000 	lsl	x0, x0, #3
   8399c:	8b000020 	add	x0, x1, x0
   839a0:	52800041 	mov	w1, #0x2                   	// #2
   839a4:	b9000001 	str	w1, [x0]
   839a8:	b0000000 	adrp	x0, 84000 <list_del+0x40>
   839ac:	f9470c00 	ldr	x0, [x0, #3608]
   839b0:	f9400001 	ldr	x1, [x0]
   839b4:	b9402fe0 	ldr	w0, [sp, #44]
   839b8:	d37df000 	lsl	x0, x0, #3
   839bc:	8b000020 	add	x0, x1, x0
   839c0:	b9403be1 	ldr	w1, [sp, #56]
   839c4:	b9000401 	str	w1, [x0, #4]
   839c8:	b0000000 	adrp	x0, 84000 <list_del+0x40>
   839cc:	912d2000 	add	x0, x0, #0xb48
   839d0:	97fff829 	bl	81a74 <uart_puts>
   839d4:	b9403be0 	ldr	w0, [sp, #56]
   839d8:	97fff89e 	bl	81c50 <uart_dec>
   839dc:	b0000000 	adrp	x0, 84000 <list_del+0x40>
   839e0:	912d8000 	add	x0, x0, #0xb60
   839e4:	97fff824 	bl	81a74 <uart_puts>
   839e8:	b9402fe0 	ldr	w0, [sp, #44]
   839ec:	97fff899 	bl	81c50 <uart_dec>
   839f0:	b0000000 	adrp	x0, 84000 <list_del+0x40>
   839f4:	912e2000 	add	x0, x0, #0xb88
   839f8:	97fff81f 	bl	81a74 <uart_puts>
   839fc:	f9401be0 	ldr	x0, [sp, #48]
   83a00:	a8c47bfd 	ldp	x29, x30, [sp], #64
   83a04:	d65f03c0 	ret

0000000000083a08 <buddy_free>:
   83a08:	a9bc7bfd 	stp	x29, x30, [sp, #-64]!
   83a0c:	910003fd 	mov	x29, sp
   83a10:	f9000fe0 	str	x0, [sp, #24]
   83a14:	f9400fe0 	ldr	x0, [sp, #24]
   83a18:	530c7c00 	lsr	w0, w0, #12
   83a1c:	b9003fe0 	str	w0, [sp, #60]
   83a20:	b9403fe0 	ldr	w0, [sp, #60]
   83a24:	53144c00 	lsl	w0, w0, #12
   83a28:	2a0003e0 	mov	w0, w0
   83a2c:	f9001be0 	str	x0, [sp, #48]
   83a30:	b0000000 	adrp	x0, 84000 <list_del+0x40>
   83a34:	f9470c00 	ldr	x0, [x0, #3608]
   83a38:	f9400001 	ldr	x1, [x0]
   83a3c:	b9403fe0 	ldr	w0, [sp, #60]
   83a40:	d37df000 	lsl	x0, x0, #3
   83a44:	8b000020 	add	x0, x1, x0
   83a48:	f90017e0 	str	x0, [sp, #40]
   83a4c:	f94017e0 	ldr	x0, [sp, #40]
   83a50:	b9400000 	ldr	w0, [x0]
   83a54:	71000c1f 	cmp	w0, #0x3
   83a58:	54000820 	b.eq	83b5c <buddy_free+0x154>  // b.none
   83a5c:	f94017e0 	ldr	x0, [sp, #40]
   83a60:	b9400000 	ldr	w0, [x0]
   83a64:	7100081f 	cmp	w0, #0x2
   83a68:	54000040 	b.eq	83a70 <buddy_free+0x68>  // b.none
   83a6c:	97fff5f2 	bl	81234 <exit>
   83a70:	f94017e0 	ldr	x0, [sp, #40]
   83a74:	b900001f 	str	wzr, [x0]
   83a78:	f94017e0 	ldr	x0, [sp, #40]
   83a7c:	b9400400 	ldr	w0, [x0, #4]
   83a80:	2a0003e0 	mov	w0, w0
   83a84:	d37cec01 	lsl	x1, x0, #4
   83a88:	b0000000 	adrp	x0, 84000 <list_del+0x40>
   83a8c:	f9473c00 	ldr	x0, [x0, #3704]
   83a90:	8b000020 	add	x0, x1, x0
   83a94:	aa0003e1 	mov	x1, x0
   83a98:	f9401be0 	ldr	x0, [sp, #48]
   83a9c:	94000134 	bl	83f6c <list_add_tail>
   83aa0:	f94017e0 	ldr	x0, [sp, #40]
   83aa4:	b9400400 	ldr	w0, [x0, #4]
   83aa8:	b9003be0 	str	w0, [sp, #56]
   83aac:	14000028 	b	83b4c <buddy_free+0x144>
   83ab0:	b9403be0 	ldr	w0, [sp, #56]
   83ab4:	52800022 	mov	w2, #0x1                   	// #1
   83ab8:	2a0003e1 	mov	w1, w0
   83abc:	b9403fe0 	ldr	w0, [sp, #60]
   83ac0:	97fffe80 	bl	834c0 <merge_buddy>
   83ac4:	7100001f 	cmp	w0, #0x0
   83ac8:	540001e1 	b.ne	83b04 <buddy_free+0xfc>  // b.any
   83acc:	b0000000 	adrp	x0, 84000 <list_del+0x40>
   83ad0:	912e8000 	add	x0, x0, #0xba0
   83ad4:	97fff7e8 	bl	81a74 <uart_puts>
   83ad8:	b9403fe0 	ldr	w0, [sp, #60]
   83adc:	97fff85d 	bl	81c50 <uart_dec>
   83ae0:	b0000000 	adrp	x0, 84000 <list_del+0x40>
   83ae4:	912ec000 	add	x0, x0, #0xbb0
   83ae8:	97fff7e3 	bl	81a74 <uart_puts>
   83aec:	b9403be0 	ldr	w0, [sp, #56]
   83af0:	97fff858 	bl	81c50 <uart_dec>
   83af4:	b0000000 	adrp	x0, 84000 <list_del+0x40>
   83af8:	912b0000 	add	x0, x0, #0xac0
   83afc:	97fff7de 	bl	81a74 <uart_puts>
   83b00:	14000018 	b	83b60 <buddy_free+0x158>
   83b04:	b9403be0 	ldr	w0, [sp, #56]
   83b08:	2a0003e1 	mov	w1, w0
   83b0c:	b9403fe0 	ldr	w0, [sp, #60]
   83b10:	97fffef8 	bl	836f0 <sibling>
   83b14:	2a0003e1 	mov	w1, w0
   83b18:	b9403fe0 	ldr	w0, [sp, #60]
   83b1c:	6b01001f 	cmp	w0, w1
   83b20:	540000c3 	b.cc	83b38 <buddy_free+0x130>  // b.lo, b.ul, b.last
   83b24:	b9403be0 	ldr	w0, [sp, #56]
   83b28:	2a0003e1 	mov	w1, w0
   83b2c:	b9403fe0 	ldr	w0, [sp, #60]
   83b30:	97fffef0 	bl	836f0 <sibling>
   83b34:	14000002 	b	83b3c <buddy_free+0x134>
   83b38:	b9403fe0 	ldr	w0, [sp, #60]
   83b3c:	b9003fe0 	str	w0, [sp, #60]
   83b40:	b9403be0 	ldr	w0, [sp, #56]
   83b44:	11000400 	add	w0, w0, #0x1
   83b48:	b9003be0 	str	w0, [sp, #56]
   83b4c:	b9403be0 	ldr	w0, [sp, #56]
   83b50:	7100381f 	cmp	w0, #0xe
   83b54:	54fffaed 	b.le	83ab0 <buddy_free+0xa8>
   83b58:	14000002 	b	83b60 <buddy_free+0x158>
   83b5c:	d503201f 	nop
   83b60:	a8c47bfd 	ldp	x29, x30, [sp], #64
   83b64:	d65f03c0 	ret

0000000000083b68 <build_free_list>:
   83b68:	a9be7bfd 	stp	x29, x30, [sp, #-32]!
   83b6c:	910003fd 	mov	x29, sp
   83b70:	b9001fff 	str	wzr, [sp, #28]
   83b74:	1400000a 	b	83b9c <build_free_list+0x34>
   83b78:	b9801fe0 	ldrsw	x0, [sp, #28]
   83b7c:	d37cec01 	lsl	x1, x0, #4
   83b80:	b0000000 	adrp	x0, 84000 <list_del+0x40>
   83b84:	f9473c00 	ldr	x0, [x0, #3704]
   83b88:	8b000020 	add	x0, x1, x0
   83b8c:	940000e3 	bl	83f18 <INIT_LIST_HEAD>
   83b90:	b9401fe0 	ldr	w0, [sp, #28]
   83b94:	11000400 	add	w0, w0, #0x1
   83b98:	b9001fe0 	str	w0, [sp, #28]
   83b9c:	b9401fe0 	ldr	w0, [sp, #28]
   83ba0:	71003c1f 	cmp	w0, #0xf
   83ba4:	54fffead 	b.le	83b78 <build_free_list+0x10>
   83ba8:	1400001d 	b	83c1c <build_free_list+0xb4>
   83bac:	b0000000 	adrp	x0, 84000 <list_del+0x40>
   83bb0:	f9470c00 	ldr	x0, [x0, #3608]
   83bb4:	f9400001 	ldr	x1, [x0]
   83bb8:	b9801be0 	ldrsw	x0, [sp, #24]
   83bbc:	d37df000 	lsl	x0, x0, #3
   83bc0:	8b000020 	add	x0, x1, x0
   83bc4:	f9000be0 	str	x0, [sp, #16]
   83bc8:	f9400be0 	ldr	x0, [sp, #16]
   83bcc:	b9400000 	ldr	w0, [x0]
   83bd0:	7100001f 	cmp	w0, #0x0
   83bd4:	540001e1 	b.ne	83c10 <build_free_list+0xa8>  // b.any
   83bd8:	b9401be0 	ldr	w0, [sp, #24]
   83bdc:	53144c00 	lsl	w0, w0, #12
   83be0:	93407c00 	sxtw	x0, w0
   83be4:	aa0003e2 	mov	x2, x0
   83be8:	f9400be0 	ldr	x0, [sp, #16]
   83bec:	b9400400 	ldr	w0, [x0, #4]
   83bf0:	2a0003e0 	mov	w0, w0
   83bf4:	d37cec01 	lsl	x1, x0, #4
   83bf8:	b0000000 	adrp	x0, 84000 <list_del+0x40>
   83bfc:	f9473c00 	ldr	x0, [x0, #3704]
   83c00:	8b000020 	add	x0, x1, x0
   83c04:	aa0003e1 	mov	x1, x0
   83c08:	aa0203e0 	mov	x0, x2
   83c0c:	940000d8 	bl	83f6c <list_add_tail>
   83c10:	b9401be0 	ldr	w0, [sp, #24]
   83c14:	11000400 	add	w0, w0, #0x1
   83c18:	b9001be0 	str	w0, [sp, #24]
   83c1c:	b9401be1 	ldr	w1, [sp, #24]
   83c20:	5297ffe0 	mov	w0, #0xbfff                	// #49151
   83c24:	72a00060 	movk	w0, #0x3, lsl #16
   83c28:	6b00003f 	cmp	w1, w0
   83c2c:	54fffc0d 	b.le	83bac <build_free_list+0x44>
   83c30:	d503201f 	nop
   83c34:	a8c27bfd 	ldp	x29, x30, [sp], #32
   83c38:	d65f03c0 	ret

0000000000083c3c <print_free_list>:
   83c3c:	a9be7bfd 	stp	x29, x30, [sp, #-32]!
   83c40:	910003fd 	mov	x29, sp
   83c44:	b90017ff 	str	wzr, [sp, #20]
   83c48:	14000029 	b	83cec <print_free_list+0xb0>
   83c4c:	b0000000 	adrp	x0, 84000 <list_del+0x40>
   83c50:	912f2000 	add	x0, x0, #0xbc8
   83c54:	97fff788 	bl	81a74 <uart_puts>
   83c58:	b94017e0 	ldr	w0, [sp, #20]
   83c5c:	97fff7fd 	bl	81c50 <uart_dec>
   83c60:	b0000000 	adrp	x0, 84000 <list_del+0x40>
   83c64:	912f6000 	add	x0, x0, #0xbd8
   83c68:	97fff783 	bl	81a74 <uart_puts>
   83c6c:	b0000000 	adrp	x0, 84000 <list_del+0x40>
   83c70:	f9473c01 	ldr	x1, [x0, #3704]
   83c74:	b98017e0 	ldrsw	x0, [sp, #20]
   83c78:	d37cec00 	lsl	x0, x0, #4
   83c7c:	8b000020 	add	x0, x1, x0
   83c80:	f9400400 	ldr	x0, [x0, #8]
   83c84:	f9000fe0 	str	x0, [sp, #24]
   83c88:	1400000b 	b	83cb4 <print_free_list+0x78>
   83c8c:	f9400fe0 	ldr	x0, [sp, #24]
   83c90:	2a0003e1 	mov	w1, w0
   83c94:	530c7c20 	lsr	w0, w1, #12
   83c98:	97fff7ee 	bl	81c50 <uart_dec>
   83c9c:	b0000000 	adrp	x0, 84000 <list_del+0x40>
   83ca0:	912f8000 	add	x0, x0, #0xbe0
   83ca4:	97fff774 	bl	81a74 <uart_puts>
   83ca8:	f9400fe0 	ldr	x0, [sp, #24]
   83cac:	f9400400 	ldr	x0, [x0, #8]
   83cb0:	f9000fe0 	str	x0, [sp, #24]
   83cb4:	b98017e0 	ldrsw	x0, [sp, #20]
   83cb8:	d37cec01 	lsl	x1, x0, #4
   83cbc:	b0000000 	adrp	x0, 84000 <list_del+0x40>
   83cc0:	f9473c00 	ldr	x0, [x0, #3704]
   83cc4:	8b000020 	add	x0, x1, x0
   83cc8:	f9400fe1 	ldr	x1, [sp, #24]
   83ccc:	eb00003f 	cmp	x1, x0
   83cd0:	54fffde1 	b.ne	83c8c <print_free_list+0x50>  // b.any
   83cd4:	b0000000 	adrp	x0, 84000 <list_del+0x40>
   83cd8:	912b2000 	add	x0, x0, #0xac8
   83cdc:	97fff766 	bl	81a74 <uart_puts>
   83ce0:	b94017e0 	ldr	w0, [sp, #20]
   83ce4:	11000400 	add	w0, w0, #0x1
   83ce8:	b90017e0 	str	w0, [sp, #20]
   83cec:	b94017e0 	ldr	w0, [sp, #20]
   83cf0:	71003c1f 	cmp	w0, #0xf
   83cf4:	54fffacd 	b.le	83c4c <print_free_list+0x10>
   83cf8:	b0000000 	adrp	x0, 84000 <list_del+0x40>
   83cfc:	912b2000 	add	x0, x0, #0xac8
   83d00:	97fff75d 	bl	81a74 <uart_puts>
   83d04:	d503201f 	nop
   83d08:	a8c27bfd 	ldp	x29, x30, [sp], #32
   83d0c:	d65f03c0 	ret

0000000000083d10 <print_buddy>:
   83d10:	a9be7bfd 	stp	x29, x30, [sp, #-32]!
   83d14:	910003fd 	mov	x29, sp
   83d18:	b9001fff 	str	wzr, [sp, #28]
   83d1c:	14000074 	b	83eec <print_buddy+0x1dc>
   83d20:	b0000000 	adrp	x0, 84000 <list_del+0x40>
   83d24:	912fa000 	add	x0, x0, #0xbe8
   83d28:	97fff753 	bl	81a74 <uart_puts>
   83d2c:	b9001bff 	str	wzr, [sp, #24]
   83d30:	14000012 	b	83d78 <print_buddy+0x68>
   83d34:	b9401fe1 	ldr	w1, [sp, #28]
   83d38:	b9401be0 	ldr	w0, [sp, #24]
   83d3c:	0b000021 	add	w1, w1, w0
   83d40:	5297ffe0 	mov	w0, #0xbfff                	// #49151
   83d44:	72a00060 	movk	w0, #0x3, lsl #16
   83d48:	6b00003f 	cmp	w1, w0
   83d4c:	540001ec 	b.gt	83d88 <print_buddy+0x78>
   83d50:	b9401fe1 	ldr	w1, [sp, #28]
   83d54:	b9401be0 	ldr	w0, [sp, #24]
   83d58:	0b000020 	add	w0, w1, w0
   83d5c:	97fff7bd 	bl	81c50 <uart_dec>
   83d60:	b0000000 	adrp	x0, 84000 <list_del+0x40>
   83d64:	912fc000 	add	x0, x0, #0xbf0
   83d68:	97fff743 	bl	81a74 <uart_puts>
   83d6c:	b9401be0 	ldr	w0, [sp, #24]
   83d70:	11000400 	add	w0, w0, #0x1
   83d74:	b9001be0 	str	w0, [sp, #24]
   83d78:	b9401be0 	ldr	w0, [sp, #24]
   83d7c:	71004c1f 	cmp	w0, #0x13
   83d80:	54fffdad 	b.le	83d34 <print_buddy+0x24>
   83d84:	14000002 	b	83d8c <print_buddy+0x7c>
   83d88:	d503201f 	nop
   83d8c:	b0000000 	adrp	x0, 84000 <list_del+0x40>
   83d90:	912fe000 	add	x0, x0, #0xbf8
   83d94:	97fff738 	bl	81a74 <uart_puts>
   83d98:	b90017ff 	str	wzr, [sp, #20]
   83d9c:	14000049 	b	83ec0 <print_buddy+0x1b0>
   83da0:	b9401fe1 	ldr	w1, [sp, #28]
   83da4:	b94017e0 	ldr	w0, [sp, #20]
   83da8:	0b000021 	add	w1, w1, w0
   83dac:	5297ffe0 	mov	w0, #0xbfff                	// #49151
   83db0:	72a00060 	movk	w0, #0x3, lsl #16
   83db4:	6b00003f 	cmp	w1, w0
   83db8:	540008cc 	b.gt	83ed0 <print_buddy+0x1c0>
   83dbc:	b0000000 	adrp	x0, 84000 <list_del+0x40>
   83dc0:	f9470c00 	ldr	x0, [x0, #3608]
   83dc4:	f9400001 	ldr	x1, [x0]
   83dc8:	b9401fe2 	ldr	w2, [sp, #28]
   83dcc:	b94017e0 	ldr	w0, [sp, #20]
   83dd0:	0b000040 	add	w0, w2, w0
   83dd4:	93407c00 	sxtw	x0, w0
   83dd8:	d37df000 	lsl	x0, x0, #3
   83ddc:	8b000020 	add	x0, x1, x0
   83de0:	b9400000 	ldr	w0, [x0]
   83de4:	7100081f 	cmp	w0, #0x2
   83de8:	540000a1 	b.ne	83dfc <print_buddy+0xec>  // b.any
   83dec:	b0000000 	adrp	x0, 84000 <list_del+0x40>
   83df0:	91300000 	add	x0, x0, #0xc00
   83df4:	97fff720 	bl	81a74 <uart_puts>
   83df8:	1400002c 	b	83ea8 <print_buddy+0x198>
   83dfc:	b0000000 	adrp	x0, 84000 <list_del+0x40>
   83e00:	f9470c00 	ldr	x0, [x0, #3608]
   83e04:	f9400001 	ldr	x1, [x0]
   83e08:	b9401fe2 	ldr	w2, [sp, #28]
   83e0c:	b94017e0 	ldr	w0, [sp, #20]
   83e10:	0b000040 	add	w0, w2, w0
   83e14:	93407c00 	sxtw	x0, w0
   83e18:	d37df000 	lsl	x0, x0, #3
   83e1c:	8b000020 	add	x0, x1, x0
   83e20:	b9400000 	ldr	w0, [x0]
   83e24:	71000c1f 	cmp	w0, #0x3
   83e28:	540000a1 	b.ne	83e3c <print_buddy+0x12c>  // b.any
   83e2c:	b0000000 	adrp	x0, 84000 <list_del+0x40>
   83e30:	91302000 	add	x0, x0, #0xc08
   83e34:	97fff710 	bl	81a74 <uart_puts>
   83e38:	1400001c 	b	83ea8 <print_buddy+0x198>
   83e3c:	b0000000 	adrp	x0, 84000 <list_del+0x40>
   83e40:	f9470c00 	ldr	x0, [x0, #3608]
   83e44:	f9400001 	ldr	x1, [x0]
   83e48:	b9401fe2 	ldr	w2, [sp, #28]
   83e4c:	b94017e0 	ldr	w0, [sp, #20]
   83e50:	0b000040 	add	w0, w2, w0
   83e54:	93407c00 	sxtw	x0, w0
   83e58:	d37df000 	lsl	x0, x0, #3
   83e5c:	8b000020 	add	x0, x1, x0
   83e60:	b9400000 	ldr	w0, [x0]
   83e64:	7100041f 	cmp	w0, #0x1
   83e68:	540000a1 	b.ne	83e7c <print_buddy+0x16c>  // b.any
   83e6c:	b0000000 	adrp	x0, 84000 <list_del+0x40>
   83e70:	91304000 	add	x0, x0, #0xc10
   83e74:	97fff700 	bl	81a74 <uart_puts>
   83e78:	1400000c 	b	83ea8 <print_buddy+0x198>
   83e7c:	b0000000 	adrp	x0, 84000 <list_del+0x40>
   83e80:	f9470c00 	ldr	x0, [x0, #3608]
   83e84:	f9400001 	ldr	x1, [x0]
   83e88:	b9401fe2 	ldr	w2, [sp, #28]
   83e8c:	b94017e0 	ldr	w0, [sp, #20]
   83e90:	0b000040 	add	w0, w2, w0
   83e94:	93407c00 	sxtw	x0, w0
   83e98:	d37df000 	lsl	x0, x0, #3
   83e9c:	8b000020 	add	x0, x1, x0
   83ea0:	b9400400 	ldr	w0, [x0, #4]
   83ea4:	97fff76b 	bl	81c50 <uart_dec>
   83ea8:	b0000000 	adrp	x0, 84000 <list_del+0x40>
   83eac:	912fc000 	add	x0, x0, #0xbf0
   83eb0:	97fff6f1 	bl	81a74 <uart_puts>
   83eb4:	b94017e0 	ldr	w0, [sp, #20]
   83eb8:	11000400 	add	w0, w0, #0x1
   83ebc:	b90017e0 	str	w0, [sp, #20]
   83ec0:	b94017e0 	ldr	w0, [sp, #20]
   83ec4:	71004c1f 	cmp	w0, #0x13
   83ec8:	54fff6cd 	b.le	83da0 <print_buddy+0x90>
   83ecc:	14000002 	b	83ed4 <print_buddy+0x1c4>
   83ed0:	d503201f 	nop
   83ed4:	b0000000 	adrp	x0, 84000 <list_del+0x40>
   83ed8:	912b2000 	add	x0, x0, #0xac8
   83edc:	97fff6e6 	bl	81a74 <uart_puts>
   83ee0:	b9401fe0 	ldr	w0, [sp, #28]
   83ee4:	11002800 	add	w0, w0, #0xa
   83ee8:	b9001fe0 	str	w0, [sp, #28]
   83eec:	b9401fe1 	ldr	w1, [sp, #28]
   83ef0:	5297ffe0 	mov	w0, #0xbfff                	// #49151
   83ef4:	72a00060 	movk	w0, #0x3, lsl #16
   83ef8:	6b00003f 	cmp	w1, w0
   83efc:	54fff12d 	b.le	83d20 <print_buddy+0x10>
   83f00:	b0000000 	adrp	x0, 84000 <list_del+0x40>
   83f04:	912b0000 	add	x0, x0, #0xac0
   83f08:	97fff6db 	bl	81a74 <uart_puts>
   83f0c:	d503201f 	nop
   83f10:	a8c27bfd 	ldp	x29, x30, [sp], #32
   83f14:	d65f03c0 	ret

0000000000083f18 <INIT_LIST_HEAD>:
   83f18:	d10043ff 	sub	sp, sp, #0x10
   83f1c:	f90007e0 	str	x0, [sp, #8]
   83f20:	f94007e0 	ldr	x0, [sp, #8]
   83f24:	f94007e1 	ldr	x1, [sp, #8]
   83f28:	f9000401 	str	x1, [x0, #8]
   83f2c:	f94007e0 	ldr	x0, [sp, #8]
   83f30:	f94007e1 	ldr	x1, [sp, #8]
   83f34:	f9000001 	str	x1, [x0]
   83f38:	d503201f 	nop
   83f3c:	910043ff 	add	sp, sp, #0x10
   83f40:	d65f03c0 	ret

0000000000083f44 <list_empty>:
   83f44:	d10043ff 	sub	sp, sp, #0x10
   83f48:	f90007e0 	str	x0, [sp, #8]
   83f4c:	f94007e0 	ldr	x0, [sp, #8]
   83f50:	f9400400 	ldr	x0, [x0, #8]
   83f54:	f94007e1 	ldr	x1, [sp, #8]
   83f58:	eb00003f 	cmp	x1, x0
   83f5c:	1a9f17e0 	cset	w0, eq  // eq = none
   83f60:	12001c00 	and	w0, w0, #0xff
   83f64:	910043ff 	add	sp, sp, #0x10
   83f68:	d65f03c0 	ret

0000000000083f6c <list_add_tail>:
   83f6c:	d10083ff 	sub	sp, sp, #0x20
   83f70:	f90007e0 	str	x0, [sp, #8]
   83f74:	f90003e1 	str	x1, [sp]
   83f78:	f94003e0 	ldr	x0, [sp]
   83f7c:	f9400000 	ldr	x0, [x0]
   83f80:	f9000fe0 	str	x0, [sp, #24]
   83f84:	f9400fe0 	ldr	x0, [sp, #24]
   83f88:	f94007e1 	ldr	x1, [sp, #8]
   83f8c:	f9000401 	str	x1, [x0, #8]
   83f90:	f94007e0 	ldr	x0, [sp, #8]
   83f94:	f94003e1 	ldr	x1, [sp]
   83f98:	f9000401 	str	x1, [x0, #8]
   83f9c:	f94007e0 	ldr	x0, [sp, #8]
   83fa0:	f9400fe1 	ldr	x1, [sp, #24]
   83fa4:	f9000001 	str	x1, [x0]
   83fa8:	f94003e0 	ldr	x0, [sp]
   83fac:	f94007e1 	ldr	x1, [sp, #8]
   83fb0:	f9000001 	str	x1, [x0]
   83fb4:	d503201f 	nop
   83fb8:	910083ff 	add	sp, sp, #0x20
   83fbc:	d65f03c0 	ret

0000000000083fc0 <list_del>:
   83fc0:	d10083ff 	sub	sp, sp, #0x20
   83fc4:	f90007e0 	str	x0, [sp, #8]
   83fc8:	f94007e0 	ldr	x0, [sp, #8]
   83fcc:	f9400400 	ldr	x0, [x0, #8]
   83fd0:	f9000fe0 	str	x0, [sp, #24]
   83fd4:	f94007e0 	ldr	x0, [sp, #8]
   83fd8:	f9400000 	ldr	x0, [x0]
   83fdc:	f9000be0 	str	x0, [sp, #16]
   83fe0:	f9400fe0 	ldr	x0, [sp, #24]
   83fe4:	f100001f 	cmp	x0, #0x0
   83fe8:	54000080 	b.eq	83ff8 <list_del+0x38>  // b.none
   83fec:	f9400fe0 	ldr	x0, [sp, #24]
   83ff0:	f9400be1 	ldr	x1, [sp, #16]
   83ff4:	f9000001 	str	x1, [x0]
   83ff8:	f9400be0 	ldr	x0, [sp, #16]
   83ffc:	f100001f 	cmp	x0, #0x0
   84000:	54000080 	b.eq	84010 <list_del+0x50>  // b.none
   84004:	f9400be0 	ldr	x0, [sp, #16]
   84008:	f9400fe1 	ldr	x1, [sp, #24]
   8400c:	f9000401 	str	x1, [x0, #8]
   84010:	d503201f 	nop
   84014:	910083ff 	add	sp, sp, #0x20
   84018:	d65f03c0 	ret

000000000008401c <list_pop>:
   8401c:	a9bd7bfd 	stp	x29, x30, [sp, #-48]!
   84020:	910003fd 	mov	x29, sp
   84024:	f9000fe0 	str	x0, [sp, #24]
   84028:	f9400fe0 	ldr	x0, [sp, #24]
   8402c:	f9400400 	ldr	x0, [x0, #8]
   84030:	f90017e0 	str	x0, [sp, #40]
   84034:	f94017e0 	ldr	x0, [sp, #40]
   84038:	97ffffe2 	bl	83fc0 <list_del>
   8403c:	f94017e0 	ldr	x0, [sp, #40]
   84040:	a8c37bfd 	ldp	x29, x30, [sp], #48
   84044:	d65f03c0 	ret

0000000000084048 <mbox_call>:
   84048:	d10083ff 	sub	sp, sp, #0x20
   8404c:	39003fe0 	strb	w0, [sp, #15]
   84050:	39403fe0 	ldrb	w0, [sp, #15]
   84054:	12000c01 	and	w1, w0, #0xf
   84058:	90000000 	adrp	x0, 84000 <list_del+0x40>
   8405c:	f9470400 	ldr	x0, [x0, #3592]
   84060:	121c6c00 	and	w0, w0, #0xfffffff0
   84064:	2a000020 	orr	w0, w1, w0
   84068:	b9001fe0 	str	w0, [sp, #28]
   8406c:	d503201f 	nop
   84070:	d2971300 	mov	x0, #0xb898                	// #47256
   84074:	f2a7e000 	movk	x0, #0x3f00, lsl #16
   84078:	b9400000 	ldr	w0, [x0]
   8407c:	7100001f 	cmp	w0, #0x0
   84080:	54ffff6b 	b.lt	8406c <mbox_call+0x24>  // b.tstop
   84084:	d2971400 	mov	x0, #0xb8a0                	// #47264
   84088:	f2a7e000 	movk	x0, #0x3f00, lsl #16
   8408c:	b9401fe1 	ldr	w1, [sp, #28]
   84090:	b9000001 	str	w1, [x0]
   84094:	d503201f 	nop
   84098:	d2971300 	mov	x0, #0xb898                	// #47256
   8409c:	f2a7e000 	movk	x0, #0x3f00, lsl #16
   840a0:	b9400000 	ldr	w0, [x0]
   840a4:	12020000 	and	w0, w0, #0x40000000
   840a8:	7100001f 	cmp	w0, #0x0
   840ac:	54ffff41 	b.ne	84094 <mbox_call+0x4c>  // b.any
   840b0:	d2971000 	mov	x0, #0xb880                	// #47232
   840b4:	f2a7e000 	movk	x0, #0x3f00, lsl #16
   840b8:	b9400000 	ldr	w0, [x0]
   840bc:	b9401fe1 	ldr	w1, [sp, #28]
   840c0:	6b00003f 	cmp	w1, w0
   840c4:	54fffe81 	b.ne	84094 <mbox_call+0x4c>  // b.any
   840c8:	90000000 	adrp	x0, 84000 <list_del+0x40>
   840cc:	f9470400 	ldr	x0, [x0, #3592]
   840d0:	b9400401 	ldr	w1, [x0, #4]
   840d4:	52b00000 	mov	w0, #0x80000000            	// #-2147483648
   840d8:	6b00003f 	cmp	w1, w0
   840dc:	1a9f17e0 	cset	w0, eq  // eq = none
   840e0:	12001c00 	and	w0, w0, #0xff
   840e4:	910083ff 	add	sp, sp, #0x20
   840e8:	d65f03c0 	ret

00000000000840ec <mm_init>:
   840ec:	90000000 	adrp	x0, 84000 <list_del+0x40>
   840f0:	f9472800 	ldr	x0, [x0, #3664]
   840f4:	f900001f 	str	xzr, [x0]
   840f8:	d503201f 	nop
   840fc:	d65f03c0 	ret

0000000000084100 <get_one_page>:
   84100:	a9be7bfd 	stp	x29, x30, [sp, #-32]!
   84104:	910003fd 	mov	x29, sp
   84108:	52800000 	mov	w0, #0x0                   	// #0
   8410c:	97fffdb2 	bl	837d4 <buddy_alloc>
   84110:	93407c00 	sxtw	x0, w0
   84114:	aa0003e1 	mov	x1, x0
   84118:	90000000 	adrp	x0, 84000 <list_del+0x40>
   8411c:	f9472800 	ldr	x0, [x0, #3664]
   84120:	f9000001 	str	x1, [x0]
   84124:	90000000 	adrp	x0, 84000 <list_del+0x40>
   84128:	f9472800 	ldr	x0, [x0, #3664]
   8412c:	f9400000 	ldr	x0, [x0]
   84130:	f9000fe0 	str	x0, [sp, #24]
   84134:	f9400fe0 	ldr	x0, [sp, #24]
   84138:	d2800201 	mov	x1, #0x10                  	// #16
   8413c:	f9000001 	str	x1, [x0]
   84140:	f9400fe0 	ldr	x0, [sp, #24]
   84144:	d281fe01 	mov	x1, #0xff0                 	// #4080
   84148:	f9000401 	str	x1, [x0, #8]
   8414c:	90000000 	adrp	x0, 84000 <list_del+0x40>
   84150:	f9472800 	ldr	x0, [x0, #3664]
   84154:	f9400000 	ldr	x0, [x0]
   84158:	91004001 	add	x1, x0, #0x10
   8415c:	90000000 	adrp	x0, 84000 <list_del+0x40>
   84160:	f9472800 	ldr	x0, [x0, #3664]
   84164:	f9000001 	str	x1, [x0]
   84168:	d503201f 	nop
   8416c:	a8c27bfd 	ldp	x29, x30, [sp], #32
   84170:	d65f03c0 	ret

0000000000084174 <mm_alloc>:
   84174:	a9bb7bfd 	stp	x29, x30, [sp, #-80]!
   84178:	910003fd 	mov	x29, sp
   8417c:	f9000bf3 	str	x19, [sp, #16]
   84180:	f90017e0 	str	x0, [sp, #40]
   84184:	f94017e0 	ldr	x0, [sp, #40]
   84188:	91003c00 	add	x0, x0, #0xf
   8418c:	927df000 	and	x0, x0, #0xfffffffffffffff8
   84190:	f9001fe0 	str	x0, [sp, #56]
   84194:	f94017e0 	ldr	x0, [sp, #40]
   84198:	2a0003e1 	mov	w1, w0
   8419c:	90000000 	adrp	x0, 84000 <list_del+0x40>
   841a0:	91306002 	add	x2, x0, #0xc18
   841a4:	90000000 	adrp	x0, 84000 <list_del+0x40>
   841a8:	9130a000 	add	x0, x0, #0xc28
   841ac:	97fff6df 	bl	81d28 <uart_sdec>
   841b0:	f9401fe0 	ldr	x0, [sp, #56]
   841b4:	2a0003e1 	mov	w1, w0
   841b8:	90000000 	adrp	x0, 84000 <list_del+0x40>
   841bc:	91312002 	add	x2, x0, #0xc48
   841c0:	90000000 	adrp	x0, 84000 <list_del+0x40>
   841c4:	91316000 	add	x0, x0, #0xc58
   841c8:	97fff6d8 	bl	81d28 <uart_sdec>
   841cc:	f9401fe0 	ldr	x0, [sp, #56]
   841d0:	f13fc01f 	cmp	x0, #0xff0
   841d4:	54000309 	b.ls	84234 <mm_alloc+0xc0>  // b.plast
   841d8:	f9401fe0 	ldr	x0, [sp, #56]
   841dc:	97fff890 	bl	8241c <log2_ceiling>
   841e0:	2a0003f3 	mov	w19, w0
   841e4:	52820000 	mov	w0, #0x1000                	// #4096
   841e8:	97fff88d 	bl	8241c <log2_ceiling>
   841ec:	4b000260 	sub	w0, w19, w0
   841f0:	97fffd79 	bl	837d4 <buddy_alloc>
   841f4:	93407c00 	sxtw	x0, w0
   841f8:	f90023e0 	str	x0, [sp, #64]
   841fc:	f94023e0 	ldr	x0, [sp, #64]
   84200:	f9401fe1 	ldr	x1, [sp, #56]
   84204:	f9000001 	str	x1, [x0]
   84208:	f94023e0 	ldr	x0, [sp, #64]
   8420c:	91002000 	add	x0, x0, #0x8
   84210:	f90023e0 	str	x0, [sp, #64]
   84214:	f94023e0 	ldr	x0, [sp, #64]
   84218:	2a0003e1 	mov	w1, w0
   8421c:	90000000 	adrp	x0, 84000 <list_del+0x40>
   84220:	9131a002 	add	x2, x0, #0xc68
   84224:	90000000 	adrp	x0, 84000 <list_del+0x40>
   84228:	91322000 	add	x0, x0, #0xc88
   8422c:	97fff6cd 	bl	81d60 <uart_shex>
   84230:	1400003f 	b	8432c <mm_alloc+0x1b8>
   84234:	90000000 	adrp	x0, 84000 <list_del+0x40>
   84238:	f9472800 	ldr	x0, [x0, #3664]
   8423c:	f9400000 	ldr	x0, [x0]
   84240:	f100001f 	cmp	x0, #0x0
   84244:	54000041 	b.ne	8424c <mm_alloc+0xd8>  // b.any
   84248:	97ffffae 	bl	84100 <get_one_page>
   8424c:	90000000 	adrp	x0, 84000 <list_del+0x40>
   84250:	f9472800 	ldr	x0, [x0, #3664]
   84254:	f9400000 	ldr	x0, [x0]
   84258:	94000072 	bl	84420 <get_page_head>
   8425c:	f90027e0 	str	x0, [sp, #72]
   84260:	f94027e0 	ldr	x0, [sp, #72]
   84264:	f9400400 	ldr	x0, [x0, #8]
   84268:	f9401fe1 	ldr	x1, [sp, #56]
   8426c:	eb00003f 	cmp	x1, x0
   84270:	54000149 	b.ls	84298 <mm_alloc+0x124>  // b.plast
   84274:	97ffffa3 	bl	84100 <get_one_page>
   84278:	90000000 	adrp	x0, 84000 <list_del+0x40>
   8427c:	f9472800 	ldr	x0, [x0, #3664]
   84280:	f9400000 	ldr	x0, [x0]
   84284:	94000067 	bl	84420 <get_page_head>
   84288:	f90027e0 	str	x0, [sp, #72]
   8428c:	90000000 	adrp	x0, 84000 <list_del+0x40>
   84290:	91334000 	add	x0, x0, #0xcd0
   84294:	97fff5f8 	bl	81a74 <uart_puts>
   84298:	90000000 	adrp	x0, 84000 <list_del+0x40>
   8429c:	f9472800 	ldr	x0, [x0, #3664]
   842a0:	f9400000 	ldr	x0, [x0]
   842a4:	91002000 	add	x0, x0, #0x8
   842a8:	f90023e0 	str	x0, [sp, #64]
   842ac:	90000000 	adrp	x0, 84000 <list_del+0x40>
   842b0:	f9472800 	ldr	x0, [x0, #3664]
   842b4:	f9400000 	ldr	x0, [x0]
   842b8:	f9401fe1 	ldr	x1, [sp, #56]
   842bc:	f9000001 	str	x1, [x0]
   842c0:	90000000 	adrp	x0, 84000 <list_del+0x40>
   842c4:	f9472800 	ldr	x0, [x0, #3664]
   842c8:	f9400001 	ldr	x1, [x0]
   842cc:	f9401fe0 	ldr	x0, [sp, #56]
   842d0:	8b000021 	add	x1, x1, x0
   842d4:	90000000 	adrp	x0, 84000 <list_del+0x40>
   842d8:	f9472800 	ldr	x0, [x0, #3664]
   842dc:	f9000001 	str	x1, [x0]
   842e0:	f94027e0 	ldr	x0, [sp, #72]
   842e4:	f9400001 	ldr	x1, [x0]
   842e8:	f9401fe0 	ldr	x0, [sp, #56]
   842ec:	8b000021 	add	x1, x1, x0
   842f0:	f94027e0 	ldr	x0, [sp, #72]
   842f4:	f9000001 	str	x1, [x0]
   842f8:	f94027e0 	ldr	x0, [sp, #72]
   842fc:	f9400401 	ldr	x1, [x0, #8]
   84300:	f9401fe0 	ldr	x0, [sp, #56]
   84304:	cb000021 	sub	x1, x1, x0
   84308:	f94027e0 	ldr	x0, [sp, #72]
   8430c:	f9000401 	str	x1, [x0, #8]
   84310:	f94023e0 	ldr	x0, [sp, #64]
   84314:	2a0003e1 	mov	w1, w0
   84318:	90000000 	adrp	x0, 84000 <list_del+0x40>
   8431c:	9131a002 	add	x2, x0, #0xc68
   84320:	90000000 	adrp	x0, 84000 <list_del+0x40>
   84324:	91340000 	add	x0, x0, #0xd00
   84328:	97fff68e 	bl	81d60 <uart_shex>
   8432c:	f94023e0 	ldr	x0, [sp, #64]
   84330:	f9400bf3 	ldr	x19, [sp, #16]
   84334:	a8c57bfd 	ldp	x29, x30, [sp], #80
   84338:	d65f03c0 	ret

000000000008433c <mm_free>:
   8433c:	a9bd7bfd 	stp	x29, x30, [sp, #-48]!
   84340:	910003fd 	mov	x29, sp
   84344:	f9000fe0 	str	x0, [sp, #24]
   84348:	f9400fe0 	ldr	x0, [sp, #24]
   8434c:	f85f8000 	ldur	x0, [x0, #-8]
   84350:	f90017e0 	str	x0, [sp, #40]
   84354:	f9400fe0 	ldr	x0, [sp, #24]
   84358:	94000032 	bl	84420 <get_page_head>
   8435c:	f90013e0 	str	x0, [sp, #32]
   84360:	f9400fe0 	ldr	x0, [sp, #24]
   84364:	2a0003e1 	mov	w1, w0
   84368:	90000000 	adrp	x0, 84000 <list_del+0x40>
   8436c:	91342002 	add	x2, x0, #0xd08
   84370:	90000000 	adrp	x0, 84000 <list_del+0x40>
   84374:	91344000 	add	x0, x0, #0xd10
   84378:	97fff67a 	bl	81d60 <uart_shex>
   8437c:	f94017e0 	ldr	x0, [sp, #40]
   84380:	f13fc01f 	cmp	x0, #0xff0
   84384:	540000e9 	b.ls	843a0 <mm_free+0x64>  // b.plast
   84388:	90000000 	adrp	x0, 84000 <list_del+0x40>
   8438c:	9134a000 	add	x0, x0, #0xd28
   84390:	97fff5b9 	bl	81a74 <uart_puts>
   84394:	f9400fe0 	ldr	x0, [sp, #24]
   84398:	97fffd9c 	bl	83a08 <buddy_free>
   8439c:	1400001b 	b	84408 <mm_free+0xcc>
   843a0:	f94013e0 	ldr	x0, [sp, #32]
   843a4:	f9400001 	ldr	x1, [x0]
   843a8:	f94017e0 	ldr	x0, [sp, #40]
   843ac:	cb000021 	sub	x1, x1, x0
   843b0:	f94013e0 	ldr	x0, [sp, #32]
   843b4:	f9000001 	str	x1, [x0]
   843b8:	f94013e0 	ldr	x0, [sp, #32]
   843bc:	f9400000 	ldr	x0, [x0]
   843c0:	f100401f 	cmp	x0, #0x10
   843c4:	54000221 	b.ne	84408 <mm_free+0xcc>  // b.any
   843c8:	90000000 	adrp	x0, 84000 <list_del+0x40>
   843cc:	f9472800 	ldr	x0, [x0, #3664]
   843d0:	f9400000 	ldr	x0, [x0]
   843d4:	94000013 	bl	84420 <get_page_head>
   843d8:	aa0003e1 	mov	x1, x0
   843dc:	f94013e0 	ldr	x0, [sp, #32]
   843e0:	eb01001f 	cmp	x0, x1
   843e4:	54000081 	b.ne	843f4 <mm_free+0xb8>  // b.any
   843e8:	90000000 	adrp	x0, 84000 <list_del+0x40>
   843ec:	f9472800 	ldr	x0, [x0, #3664]
   843f0:	f900001f 	str	xzr, [x0]
   843f4:	90000000 	adrp	x0, 84000 <list_del+0x40>
   843f8:	9135a000 	add	x0, x0, #0xd68
   843fc:	97fff59e 	bl	81a74 <uart_puts>
   84400:	f94013e0 	ldr	x0, [sp, #32]
   84404:	97fffd81 	bl	83a08 <buddy_free>
   84408:	90000000 	adrp	x0, 84000 <list_del+0x40>
   8440c:	91342000 	add	x0, x0, #0xd08
   84410:	97fff599 	bl	81a74 <uart_puts>
   84414:	d503201f 	nop
   84418:	a8c37bfd 	ldp	x29, x30, [sp], #48
   8441c:	d65f03c0 	ret

0000000000084420 <get_page_head>:
   84420:	d10043ff 	sub	sp, sp, #0x10
   84424:	f90007e0 	str	x0, [sp, #8]
   84428:	f94007e0 	ldr	x0, [sp, #8]
   8442c:	2a0003e0 	mov	w0, w0
   84430:	92744c00 	and	x0, x0, #0xfffff000
   84434:	910043ff 	add	sp, sp, #0x10
   84438:	d65f03c0 	ret
